
test.elf:     file format elf32-littleriscv

Contents of section .text:
 10000 17210000 130101ad 97120000 938242ac  .!............B.
 10010 17130000 1303c3ab 63d86200 23a00200  ........c.b.#...
 10020 93824200 6ff05fff ef00404d 9308d005  ..B.o._...@M....
 10030 13050000 73000000 6f000000 130101ff  ....s...o.......
 10040 23268100 13030500 6300052e b7070100  #&......c.......
 10050 6362f514 93070500 13068000 13070000  cb..............
 10060 b7060001 63f6d700 93978700 13070600  ....c...........
 10070 b7060010 63f6d700 13074700 93974700  ....c.....G...G.
 10080 b7060040 63f0d726 93962700 13072700  ...@c..&..'...'.
 10090 63c40600 13071700 9306f001 b386e640  c..............@
 100a0 b7170100 93952600 938707a3 13061000  ......&.........
 100b0 b385b700 3316d600 03a50500 637c660e  ....3.......c|f.
 100c0 13060002 3307e640 13172700 b387e700  ....3..@..'.....
 100d0 03af0700 138606fe 330fe541 634a0624  ........3..AcJ.$
 100e0 13071000 3317c700 93070000 b307f340  ....3..........@
 100f0 b335f300 3307e040 3307b740 13170701  .5..3..@3..@....
 10100 93d50701 33e7e500 93970701 3358c700  ....3.......3X..
 10110 635e0600 1306f001 13171700 3306d640  c^..........3..@
 10120 33d8d700 b317c700 33e80701 93050000  3.......3.......
 10130 13060000 93070000 130e1000 93521f00  .............R..
 10140 930ff001 93080002 6f008002 13070000  ........o.......
 10150 b316df00 3387e500 b33eb700 3306d600  ....3....>..3...
 10160 93050700 3386ce00 93871700 638c1703  ....3.......c...
 10170 3317fe00 33770701 938607fe e30607fe  3...3w..........
 10180 3387ff40 e3d406fc b3d6e200 3317ff00  3..@........3...
 10190 6ff05ffc 93170501 13068001 13070001  o._.............
 101a0 6ff01fec 13160601 93d50501 b365b600  o............e..
 101b0 3305b540 930e2000 93051000 9308f001  3..@.. .........
 101c0 13080002 135e1300 370f0300 93020000  .....^..7.......
 101d0 93070000 138607fe b396f500 3317f500  ............3...
 101e0 1356f641 b3f6a600 3377c700 93871700  .V.A....3w......
 101f0 63840600 b382e200 e39e07fd 13060000  c...............
 10200 930f0000 93070000 6f008002 13070000  ........o.......
 10210 b316d300 3307e600 b333c700 b38fdf00  ....3....3......
 10220 13060700 b38ff301 93871700 63840703  ............c...
 10230 3397f500 33775700 938607fe e30607fe  3...3wW.........
 10240 3387f840 e3d406fc b356ee00 3317f300  3..@.....V..3...
 10250 6ff05ffc 939f0f01 13560601 33e6cf00  o._......V..3...
 10260 3306cf40 93020000 930f0000 93070000  3..@............
 10270 13541500 6f008002 13070000 b316d500  .T..o...........
 10280 3387e200 b3335700 b38fdf00 93020700  3....3W.........
 10290 b38ff301 93871700 63840703 3397f500  ........c...3...
 102a0 3377c700 938607fe e30607fe 3387f840  3w..........3..@
 102b0 e3d406fc b356e400 3317f500 6ff05ffc  .....V..3...o._.
 102c0 939fff00 93d21201 33e55f00 6386be00  ........3._.c...
 102d0 930e1000 6ff09fef 0324c100 13010101  ....o....$......
 102e0 67800000 e3d807da 1308f001 b306e840  g..............@
 102f0 b7170100 93952600 938707a3 13061000  ......&.........
 10300 b385b700 3316d600 03a50500 e37466ea  ....3........tf.
 10310 e39806db 130f0500 b7070080 13070000  ................
 10320 1306f0ff 6ff09fdc 13050000 6ff09fe8  ....o.......o...
 10330 93071000 b397d700 13070000 6ff01fdb  ............o...
 10340 130101fe 9307a000 a30ff100 631a0502  ............c...
 10350 93070003 230ff100 1303e101 93070102  ....#...........
 10360 b3876740 93080004 13051000 b3056000  ..g@..........`.
 10370 13860700 73000000 13010102 67800000  ....s.......g...
 10380 1303e101 93059000 1306f0ff 93081000  ................
 10390 1307f001 93070000 b356e500 93971700  .........V......
 103a0 93f61600 b3e7f600 1307f7ff 63f4f500  ............c...
 103b0 938767ff e312c7fe 93870703 2300f300  ..g.........#...
 103c0 130ef3ff 13080000 1307f001 93070000  ................
 103d0 b356e500 93f61600 93971700 b3e7f600  .V..............
 103e0 b396e800 1307f7ff 63f6f500 938767ff  ........c.....g.
 103f0 3368d800 e31ec7fc e30208f6 13030e00  3h..............
 10400 13050800 6ff0dff8 1308f6ff 630e0608  ....o.......c...
 10410 93076000 13871500 63fa0707 b367b500  ..`.....c....g..
 10420 93f73700 13871500 63920706 b307e540  ..7.....c......@
 10430 93b73700 639c0704 9378c6ff b3861501  ..7.c....x......
 10440 93070500 03a70500 93854500 93874700  ..........E...G.
 10450 23aee7fe e398b6fe 33081841 b3071501  #.......3..A....
 10460 63041605 03c70600 2380e700 630e0802  c.......#...c...
 10470 03c61600 13071000 a380c700 6306e802  ............c...
 10480 03c72600 2381e700 67800000 3306c500  ..&.#...g...3...
 10490 93070500 8346f7ff 93871700 13071700  .....F..........
 104a0 a38fd7fe e398c7fe 67800000 13070500  ........g.......
 104b0 13050000 63820502 93f71500 b307f040  ....c..........@
 104c0 b3f7e700 93d51500 3305f500 13171700  ........3.......
 104d0 e39405fe 67800000 67800000 63080500  ....g...g...c...
 104e0 13071000 6308e500 6ff05fb5 1305f0ff  ....c...o._.....
 104f0 67800000 37050100 67800000 b7170100  g...7...g.......
 10500 938707a3 03a80708 03a54708 83a58708  ..........G.....
 10510 03a6c708 83a60709 03a74709 83a78709  ..........G.....
 10520 130101f8 232c8106 232a9106 23282107  ....#,..#*..#(!.
 10530 23263107 23244107 232e1106 23225107  #&1.#$A.#...#"Q.
 10540 23206107 23220103 2324a102 2326b102  # a.#"..#$..#&..
 10550 2328c102 232ad102 232ce102 232ef102  #(..#*..#,..#...
 10560 13044102 130a0104 9304f0ff 93091000  ..A.............
 10570 13099000 b7273d20 93878707 2320f104  .....'= ....# ..
 10580 032b0400 23020104 93074000 93080004  .+..#.....@.....
 10590 13051000 b3054001 13860700 73000000  ......@.....s...
 105a0 13050b00 eff0dfd9 930af0ff 630a0b00  ............c...
 105b0 63043b39 13050b00 eff05fa8 930a0500  c.;9......_.....
 105c0 37277920 b7270000 13070702 9387d703  7'y .'..........
 105d0 2312f104 23030104 2320e104 93076000  #...#...# ....`.
 105e0 93080004 13051000 b3054001 13860700  ..........@.....
 105f0 73000000 13850a00 eff09fd4 638e9a16  s...........c...
 10600 b7170100 938707a0 83a50700 03a64700  ..............G.
 10610 83a68700 03d7c700 83c7e700 2320b104  ............# ..
 10620 2322c104 2307f104 2324d104 2316e104  #"..#...#$..#...
 10630 9307e000 93080004 13051000 b3054001  ..............@.
 10640 13860700 73000000 139e0a01 135e0e01  ....s........^..
 10650 37480f00 13d60a01 135f1e00 13080824  7H......._.....$
 10660 13050000 93050000 93070000 930ef001  ................
 10670 93080002 6f008002 13070000 b316de00  ....o...........
 10680 3307e500 3333a700 b385d500 13050700  3...33..........
 10690 b305b300 93871700 63841703 3397f900  ........c...3...
 106a0 33770701 938607fe e30607fe 3387fe40  3w..........3..@
 106b0 e3d406fc b356ef00 3317fe00 6ff05ffc  .....V..3...o._.
 106c0 37880000 33080501 b337a800 b387b700  7...3....7......
 106d0 13970701 13580801 93d70701 33680701  .....X......3h..
 106e0 63980700 b7470f00 9387f723 63f00713  c....G.....#c...
 106f0 13061600 13080000 13050000 1307f001  ................
 10700 93070000 b356e600 93971700 93f61600  .....V..........
 10710 b3e7f600 1307f7ff 6374f900 938767ff  ........ct....g.
 10720 e31297fe 13031500 93870703 33076a00  ............3.j.
 10730 a30ff7fe 93050000 1307f001 93070000  ................
 10740 b356e600 93f61600 93971700 b3e7f600  .V..............
 10750 b396e900 1307f7ff 6376f900 938767ff  ........cv....g.
 10760 b3e5d500 e31e97fc 6384051a 13050300  ........c.......
 10770 13860500 6ff09ff8 b7170100 938707a1  ....o...........
 10780 83a80700 03a84700 03a58700 83a5c700  ......G.........
 10790 03a60701 83a64701 03a78701 83c7c701  ......G.........
 107a0 23201105 23220105 230ef104 2324a104  # ..#"..#...#$..
 107b0 2326b104 2328c104 232ad104 232ce104  #&..#(..#*..#,..
 107c0 9307c001 93080004 13051000 b3054001  ..............@.
 107d0 13860700 73000000 13044400 e31c8ad8  ....s.....D.....
 107e0 8320c107 03248107 83244107 03290107  . ...$...$A..)..
 107f0 8329c106 032a8106 832a4106 032b0106  .)...*...*A..+..
 10800 13050000 13010108 67800000 e31606ee  ........g.......
 10810 93070003 2306f100 13031000 130ec100  ....#...........
 10820 93080004 13051000 b305c001 13060300  ................
 10830 73000000 9307e002 2306f100 93080004  s.......#.......
 10840 13051000 b305c001 13860900 73000000  ............s...
 10850 93050a00 1305a103 1307f001 93070000  ................
 10860 b356e800 93971700 93f61600 b3e7f600  .V..............
 10870 1307f7ff 6374f900 938767ff e31297fe  ....ct....g.....
 10880 93870703 a382f500 13060000 1307f001  ................
 10890 93070000 b356e800 93f61600 93971700  .....V..........
 108a0 b3e7f600 b396e900 1307f7ff 6376f900  ............cv..
 108b0 938767ff 3366d600 e31e97fc 9385f5ff  ..g.3f..........
 108c0 6386a500 13080600 6ff01ff9 93076000  c.......o.....`.
 108d0 93080004 13051000 b3054001 13860700  ..........@.....
 108e0 73000000 b7170000 938797a2 2310f104  s...........#...
 108f0 23010104 93072000 93080004 13051000  #..... .........
 10900 b3054001 13860700 73000000 6ff0dfec  ..@.....s...o...
 10910 130ec100 b307aa00 13070e00 03c60700  ................
 10920 93860700 13071700 a30fc7fe 9387f7ff  ................
 10930 e316dafe 6ff0dfee b70a0100 6ff05fc8  ....o.......o._.
 10940 f32500c8 732500c0 732600c8 e39ac5fe  .%..s%..s&......
 10950 67800000 f32520c8 732520c0 732620c8  g....% .s% .s& .
 10960 e39ac5fe 67800000 9307f003 63e0c702  ....g.......c...
 10970 63020602 9307f001 63d0c702 130606fe  c.......c.......
 10980 b315c500 13050000 67800000 13050000  ........g.......
 10990 93050000 67800000 93070002 b387c740  ....g..........@
 109a0 b357f500 b395c500 b3e5b700 3315c500  .W..........3...
 109b0 67800000 9307f003 63e0c702 63020602  g.......c...c...
 109c0 9307f001 63d0c702 130606fe 33d5c500  ....c.......3...
 109d0 93050000 67800000 13050000 93050000  ....g...........
 109e0 67800000 93070002 b387c740 b397f500  g..........@....
 109f0 3355c500 33e5a700 b3d5c500 67800000  3U..3.......g...
 10a00 20202879 2f363535 3336207e 3d200000    (y/65536 ~= ..
 10a10 20202841 63747561 6c207661 6c756520    (Actual value 
 10a20 3d20696e 66696e69 7479290a 00000000  = infinity).....
 10a30 00000100 05b50000 00800000 825a0000  .............Z..
 10a40 00400000 412d0000 00200000 a1160000  .@..A-... ......
 10a50 00100000 500b0000 00080000 a8050000  ....P...........
 10a60 00040000 d4020000 00020000 6a010000  ............j...
 10a70 00010000 b5000000 80000000 5a000000  ............Z...
 10a80 40000000 2d000000 20000000 17000000  @...-... .......
 10a90 10000000 0b000000 08000000 06000000  ................
 10aa0 04000000 03000000 02000000 01000000  ................
 10ab0 01000000 04000000 10000000 14000000  ................
 10ac0 64000000 00000000 ffffffff           d...........    
Contents of section .riscv.attributes:
 0000 41280000 00726973 63760001 1e000000  A(...riscv......
 0010 04100572 76333269 3270315f 7a696373  ...rv32i2p1_zics
 0020 72327030 0008010a 0b                 r2p0.....       
Contents of section .comment:
 0000 4743433a 20287850 61636b20 474e5520  GCC: (xPack GNU 
 0010 52495343 2d562045 6d626564 64656420  RISC-V Embedded 
 0020 47434320 7838365f 36342920 31342e32  GCC x86_64) 14.2
 0030 2e3000                               .0.             
Contents of section .debug_line:
 0000 71000000 02001b00 00000101 fb0e0a00  q...............
 0010 01010101 00000001 00737461 72742e53  .........start.S
 0020 00000000 00000502 00000100 16030309  ................
 0030 08000103 01090800 01030209 08000103  ................
 0040 01090400 01030109 04000103 01090400  ................
 0050 01030409 04000103 03090400 01030109  ................
 0060 04000103 01090400 01030409 04000109  ................
 0070 04000001 01cf1200 00050004 004e0000  .............N..
 0080 00010101 fb0e0d00 01010101 00000001  ................
 0090 00000101 011f0500 00000046 00000083  ...........F....
 00a0 000000bc 00000000 01000002 011f020f  ................
 00b0 063f0000 00003f00 00000035 01000001  .?....?....5....
 00c0 46010000 02500100 00035901 00000405  F....P....Y.....
 00d0 0a000502 3c000100 03fb0101 05050306  ....<...........
 00e0 09000001 050a0603 7a090000 01030009  ........z.......
 00f0 08000105 05060368 09040001 05080603  .......h........
 0100 00090000 01050506 03010904 00010301  ................
 0110 09000001 05080603 00090000 01050903  ................
 0120 7f091000 01050506 03020904 00010508  ................
 0130 06030009 00000105 1f000204 01060300  ................
 0140 09080001 05280300 09000001 052a0002  .....(.......*..
 0150 04010603 00090000 01052100 02040103  ..........!.....
 0160 00090400 01050506 03010904 00010508  ................
 0170 06030009 00000105 1f000204 01060300  ................
 0180 09080001 05210002 04010603 00090000  .....!..........
 0190 01052806 03000904 0001052a 00020401  ..(........*....
 01a0 06030009 00000105 05060301 09040001  ................
 01b0 05080603 00090000 01051f00 02040106  ................
 01c0 03000908 00010508 06030109 00000105  ................
 01d0 21000204 01037f09 04000105 28060300  !...........(...
 01e0 09040001 05050301 09000001 05080603  ................
 01f0 00090000 01051f00 02040106 03000904  ................
 0200 00010521 00020401 06030009 00000105  ...!............
 0210 09000204 01031809 04000105 05060303  ................
 0220 09080001 050e0603 00090000 01051103  ................
 0230 03090c00 01050e03 7d090400 01051103  ........}.......
 0240 03090400 01050e03 7d090400 01050506  ........}.......
 0250 03030904 00010508 06030009 00000105  ................
 0260 38000204 01030209 04000105 3d000204  8...........=...
 0270 01030009 08000105 12030109 08000105  ................
 0280 3d030209 04000105 12037e09 04000105  =.........~.....
 0290 3d030209 04000105 0906037e 09100001  =..........~....
 02a0 03020900 00010535 06030009 00000105  .......5........
 02b0 46030009 10000105 4d030009 10000105  F.......M.......
 02c0 09060302 09200001 050503d9 7e090000  ..... ......~...
 02d0 01030109 00000105 0a030009 00000105  ................
 02e0 17000204 01030009 00000105 0e06037f  ................
 02f0 09000001 03010908 00010515 03010904  ................
 0300 0001051f 03010904 00010517 00020401  ................
 0310 037e0908 0001051f 03020908 0001050f  .~..............
 0320 03000908 0001051d 00020402 06037e09  ..............~.
 0330 14000105 17000204 01030009 04000105  ................
 0340 09030109 04000105 0d030109 00000105  ................
 0350 1506037f 09000001 050f0300 09040001  ................
 0360 051f0301 09040001 050c037f 09040001  ................
 0370 051f0301 09040001 00020401 0603fb00  ................
 0380 09140001 05280300 09000001 052a0002  .....(.......*..
 0390 04010603 00090000 01052100 02040103  ..........!.....
 03a0 00090800 01050506 03877f09 08000105  ................
 03b0 2b000204 010603a2 01090000 01050b00  +...............
 03c0 02040103 00090c00 01051d00 02040106  ................
 03d0 03070904 00010515 0603d47e 09040001  ...........~....
 03e0 051f0301 09040001 05170002 0401037e  ...............~
 03f0 09040001 051f0302 09040001 051803ae  ................
 0400 01090400 01051700 02040106 03d07e09  ..............~.
 0410 04000105 0e06037f 09000001 03010904  ................
 0420 00010509 06030109 04000105 0d030109  ................
 0430 00000105 1d000204 02037e09 00000105  ..........~.....
 0440 1f060302 09000001 0515037f 09040001  ................
 0450 051f0301 09040001 050f037f 09080001  ................
 0460 051f0301 09040001 051d0002 0402037e  ...............~
 0470 09040001 05170002 04010603 00090400  ................
 0480 01050c06 03010900 0001050f 03010904  ................
 0490 00010517 00020401 037e0904 00010505  .........~......
 04a0 06030409 04000105 0903ab01 09000001  ................
 04b0 050503d0 7e090000 01030109 00000105  ....~...........
 04c0 0a030009 00000105 17000204 01030009  ................
 04d0 00000105 0e06037f 09000001 03010908  ................
 04e0 0001051f 03020908 0001050f 03000908  ................
 04f0 0001051d 00020402 06037e09 14000105  ..........~.....
 0500 17000204 01030009 04000105 09030109  ................
 0510 04000105 0d030109 00000105 1506037f  ................
 0520 09000001 050f0300 09040001 051f0301  ................
 0530 09040001 050c037f 09040001 051f0301  ................
 0540 09040001 05050603 02091400 01050903  ................
 0550 ac010900 00010530 00020401 06037f09  .......0........
 0560 00000105 18030109 0c000105 050603cf  ................
 0570 7e090400 01030109 00000105 0a030009  ~...............
 0580 00000105 17000204 01030009 00000105  ................
 0590 0e06037f 09000001 03010908 0001051f  ................
 05a0 03020904 0001050f 03000910 0001051d  ................
 05b0 00020402 06037e09 14000105 17000204  ......~.........
 05c0 01030009 04000105 09030109 04000105  ................
 05d0 0d030109 00000105 1506037f 09000001  ................
 05e0 050f0300 09040001 051f0301 09040001  ................
 05f0 050c037f 09040001 051f0301 09040001  ................
 0600 05050603 02091400 01053300 02040106  ..........3.....
 0610 03ac0109 00000105 22000204 0306037d  ........"......}
 0620 090c0001 051d0002 04010300 09000001  ................
 0630 05010603 07090c00 01050506 034d090c  .............M..
 0640 00010508 06030009 00000105 09000204  ................
 0650 01031809 04000105 05060303 09080001  ................
 0660 050e0603 00090000 01051103 03090c00  ................
 0670 01050e03 7d090400 01051103 03090400  ....}...........
 0680 01050e03 7d090400 01050506 03030904  ....}...........
 0690 00010508 06030009 00000105 09060302  ................
 06a0 09040001 053d0603 00090000 01050e03  .....=..........
 06b0 7b091800 01053d03 08090800 01050106  {.....=.........
 06c0 03fd7e09 10000105 05030109 00000103  ..~.............
 06d0 01090000 01050106 037e0900 00010505  .........~......
 06e0 06030309 04000105 08060300 09000001  ................
 06f0 05050603 01090800 01030209 00000105  ................
 0700 08060300 09000001 05090603 01090400  ................
 0710 01050c06 03000900 00010509 06030109  ................
 0720 08000105 05030909 04000103 01090000  ................
 0730 01030009 00000103 00091c00 01050106  ................
 0740 03010900 00010506 03710908 0001050c  .........q......
 0750 03bc7f09 04000105 18000204 01037c09  ..............|.
 0760 04000105 1e037209 04000105 18000204  ......r.........
 0770 0106030e 09040001 050e0603 00090000  ................
 0780 01051303 7e090400 01050906 03030904  ....~...........
 0790 0001050d 03040900 00010520 06037d09  ........... ..}.
 07a0 00000105 13037f09 04000105 09060301  ................
 07b0 09040001 05260603 00090000 01051303  .....&..........
 07c0 00090400 01050906 03020904 0001051f  ................
 07d0 00020402 06037c09 00000105 0c030409  ......|.........
 07e0 04000105 17030109 04000105 1f000204  ................
 07f0 0206037b 09040001 05180002 04010300  ...{............
 0800 09000001 05160002 04010603 cf000904  ................
 0810 00010510 00020401 03000904 0001050d  ................
 0820 06030109 04000105 0e060300 09000001  ................
 0830 050d0603 01090400 01050503 957f0900  ................
 0840 00010518 00020401 03060900 00010513  ................
 0850 06037d09 00000105 0e030309 04000105  ..}.............
 0860 13037e09 04000105 09060303 09040001  ..~.............
 0870 050d0304 09000001 05200603 7d090000  ......... ..}...
 0880 01052603 00090400 01051303 7f090400  ..&.............
 0890 01050906 03010904 00010513 06030009  ................
 08a0 00000105 09060302 09040001 051e0603  ................
 08b0 02090000 01051f00 02040203 7a090400  ............z...
 08c0 01050c03 04090400 01051703 01090400  ................
 08d0 01050d06 03010904 00010516 06030009  ................
 08e0 00000105 1f000204 0206037a 09040001  ...........z....
 08f0 05180002 04010300 09000001 051403e2  ................
 0900 00090400 01050103 8d7f0910 00010505  ................
 0910 03010900 00010301 09000001 03010900  ................
 0920 0001050c 03000900 0001050d 06030009  ................
 0930 00000105 0c030009 04000105 09060301  ................
 0940 09380001 05100603 00090000 01050e03  .8..............
 0950 00090c00 01050c06 037f0904 00010509  ................
 0960 03010910 00010510 06030009 00000105  ................
 0970 0e030009 04000105 0c06037f 09040001  ................
 0980 05090301 09040001 05100603 00090000  ................
 0990 01050c03 7f090400 01050e03 01090400  ................
 09a0 01050c06 037f0904 00010509 03010904  ................
 09b0 00010510 06030009 00000105 0e030009  ................
 09c0 04000105 0c06037f 09040001 050e0603  ................
 09d0 7e090800 01050906 03030904 00010510  ~...............
 09e0 06030009 00000105 0b030009 04000105  ................
 09f0 0e030009 08000105 0c06037f 09040001  ................
 0a00 05050302 09040001 05010603 01090000  ................
 0a10 0106033a 09040001 05050301 09000001  ...:............
 0a20 05010603 7f090000 01050506 03740904  .............t..
 0a30 00010301 09000001 050c0300 09000001  ................
 0a40 050e0603 7f090000 01050c03 01090400  ................
 0a50 01050906 03010904 0001050f 06030009  ................
 0a60 00000105 0c030009 04000105 0b030309  ................
 0a70 08000105 0c037d09 04000105 09060302  ......}.........
 0a80 09040001 050b0603 00090000 01050906  ................
 0a90 03010904 0001050c 037c0900 00010505  .........|......
 0aa0 03060908 00010501 06030709 00000105  ................
 0ab0 21060399 01090400 01050503 02090000  !...............
 0ac0 01050806 03000900 00010505 06030109  ................
 0ad0 04000105 08060300 09000001 05180002  ................
 0ae0 0401037f 090c0001 00020401 03010908  ................
 0af0 00010501 031e0904 00010904 00000101  ................
 0b00 05100005 02fc0401 00039f02 01050503  ................
 0b10 01090000 01050e06 03000900 00010510  ................
 0b20 037f0924 0001050e 03010924 00010505  ...$.......$....
 0b30 06030109 1c000105 0a030009 00000105  ................
 0b40 1c000204 01030009 00000105 18000204  ................
 0b50 0106035c 09080001 05080301 09040001  ...\............
 0b60 050c03cb 7e090400 01050906 03d90109  ....~...........
 0b70 04000106 03010900 00010512 037f090c  ................
 0b80 00010509 06030109 04000103 00090000  ................
 0b90 01030009 00000103 00091c00 01051c03  ................
 0ba0 00090000 01050903 01090000 01030309  ................
 0bb0 08000105 05035609 00000105 18000204  ......V.........
 0bc0 01060300 09000001 05080300 09040001  ................
 0bd0 05050603 01090400 01050806 03000900  ................
 0be0 00010509 06032a09 10000103 00091800  ......*.........
 0bf0 01030009 00000103 00091c00 01051e03  ................
 0c00 00090000 01050903 01090000 01030109  ................
 0c10 08000105 0c060300 09000001 05090603  ................
 0c20 04090400 01030009 28000103 00090000  ........(.......
 0c30 01030009 20000105 26030009 00000105  .... ...&.......
 0c40 09030209 00000105 0503867f 09000001  ................
 0c50 05180603 09090000 01050f03 aa7f0908  ................
 0c60 0001050e 03cd0009 04000105 05060303  ................
 0c70 09040001 03010900 0001050a 03000900  ................
 0c80 0001051c 00020401 03000900 00010509  ................
 0c90 03010900 0001052b 00020403 037f0900  .......+........
 0ca0 0001051c 00020401 03000900 00010509  ................
 0cb0 03010900 0001052b 00020403 037f0900  .......+........
 0cc0 0001051c 00020401 03000900 00010509  ................
 0cd0 03010900 0001052b 00020403 037f0900  .......+........
 0ce0 0001051c 00020401 03000900 00010509  ................
 0cf0 03010900 0001052b 00020403 037f0900  .......+........
 0d00 0001051c 00020401 03000900 00010509  ................
 0d10 03010900 0001052b 00020403 037f0900  .......+........
 0d20 0001051c 00020401 03000900 00010509  ................
 0d30 03010900 0001052b 00020403 037f0900  .......+........
 0d40 0001051c 00020401 03000900 00010505  ................
 0d50 03050900 000103a8 7f090000 01030109  ................
 0d60 00000105 0a030009 00000105 17000204  ................
 0d70 01030009 00000105 1f060302 09000001  ................
 0d80 050f037f 09040001 050e037e 09040001  ...........~....
 0d90 03010908 0001051f 03020904 00010517  ................
 0da0 00020401 037e0904 0001051f 03020908  .....~..........
 0db0 0001050f 03000908 0001051d 00020402  ................
 0dc0 06037e09 14000105 17000204 01030009  ..~.............
 0dd0 04000105 09030109 04000105 0d030109  ................
 0de0 00000105 1506037f 09000001 050f0300  ................
 0df0 09040001 051f0301 09040001 050c037f  ................
 0e00 09040001 051f0301 09040001 05050603  ................
 0e10 02091400 01054600 02040106 03d30009  ......F.........
 0e20 00000105 0e000204 01030009 10000105  ................
 0e30 05060301 09100001 05080603 00090000  ................
 0e40 01050906 03020910 00010512 06030009  ................
 0e50 00000105 09060301 09040001 05050303  ................
 0e60 09000001 035c0900 00010301 09000001  .....\..........
 0e70 03010900 00010512 06031e09 00000105  ................
 0e80 10060367 09040001 050d0603 7f090000  ...g............
 0e90 01051800 02040106 039d7f09 04000105  ................
 0ea0 0e060300 09000001 0513037e 09040001  ...........~....
 0eb0 05090603 03090400 01050d03 04090000  ................
 0ec0 01052006 037d0900 00010513 037f0904  .. ..}..........
 0ed0 00010509 06030109 04000105 26060300  ............&...
 0ee0 09000001 05130300 09040001 05090603  ................
 0ef0 02090400 01051f00 02040206 037c0900  .............|..
 0f00 0001050c 03040904 00010517 03010904  ................
 0f10 0001051f 00020402 06037b09 04000105  ..........{.....
 0f20 18000204 01030009 00000105 13000204  ................
 0f30 010603e5 00090400 01051d00 02040103  ................
 0f40 00090400 01051700 02040103 00090400  ................
 0f50 01050d06 03010908 00010505 03807f09  ................
 0f60 00000105 18000204 01030609 00000105  ................
 0f70 1306037d 09000001 050e0303 09040001  ...}............
 0f80 0513037e 09040001 05090603 03090400  ...~............
 0f90 01050d03 04090000 01052006 037d0900  .......... ..}..
 0fa0 00010526 03000904 00010513 037f0904  ...&............
 0fb0 00010509 06030109 04000105 13060300  ................
 0fc0 09000001 05090603 02090400 01051e06  ................
 0fd0 03020900 0001051f 00020402 037a0904  .............z..
 0fe0 0001050c 03040904 00010517 03010904  ................
 0ff0 0001050d 06030109 04000105 16060300  ................
 1000 09000001 051f0002 04020603 7a090400  ............z...
 1010 01051800 02040103 00090000 01051003  ................
 1020 f8000904 0001050d 03820109 10000103  ................
 1030 00093400 01030009 00000103 00092c00  ..4...........,.
 1040 01053903 00090000 01050d03 01090000  ..9.............
 1050 01051b03 05090000 01053800 02040203  ..........8.....
 1060 70090000 01051c00 02040103 00090000  p...............
 1070 01050503 13090800 01050106 03010900  ................
 1080 00010505 0603917f 092c0001 035c0900  .........,...\..
 1090 00010301 09000001 03010900 00010508  ................
 10a0 06030009 00000105 09060301 09040001  ................
 10b0 05120603 00090000 01050e03 00090800  ................
 10c0 01050506 030b0908 00010300 09000001  ................
 10d0 03000914 00010319 09000001 050a0603  ................
 10e0 00090000 01050506 03010908 00010300  ................
 10f0 09000001 03000914 00010303 09000001  ................
 1100 03010900 00010301 09000001 050d0307  ................
 1110 09000001 03010900 00010512 03000900  ................
 1120 0001052d 00020401 03000900 00010518  ...-............
 1130 00020401 03ee7e09 08000105 0e060300  ......~.........
 1140 09000001 0513037e 09040001 05090603  .......~........
 1150 03090400 01050d03 04090000 01052006  .............. .
 1160 037d0900 00010513 037f0904 00010509  .}..............
 1170 06030109 04000105 26060300 09000001  ........&.......
 1180 05130300 09040001 05090603 02090400  ................
 1190 01051f00 02040206 037c0900 0001050c  .........|......
 11a0 03040904 00010517 03010904 0001051f  ................
 11b0 00020402 06037b09 04000105 18000204  ......{.........
 11c0 01030009 00000105 1f000204 01060393  ................
 11d0 01090400 01051900 02040103 00090400  ................
 11e0 01051106 03010904 00010505 03d27e09  ..............~.
 11f0 00000105 18000204 01030609 00000105  ................
 1200 1306037d 09000001 050e0303 09040001  ...}............
 1210 0513037e 09040001 05090603 03090400  ...~............
 1220 01050d03 04090000 01052006 037d0900  .......... ..}..
 1230 00010526 03000904 00010513 037f0904  ...&............
 1240 00010509 06030109 04000105 13060300  ................
 1250 09000001 05090603 02090400 01051e06  ................
 1260 03020900 0001051f 00020402 037a0904  .............z..
 1270 0001050c 03040904 00010517 03010904  ................
 1280 0001050d 06030109 04000105 16060300  ................
 1290 09000001 051f0002 04020603 7a090400  ............z...
 12a0 01051800 02040103 00090000 01053300  ..............3.
 12b0 02040303 a6010904 0001052d 00020401  ...........-....
 12c0 03000900 00010505 03070910 00010300  ................
 12d0 09000001 03000918 00010509 03d30009  ................
 12e0 00000103 00091000 01030009 00000103  ................
 12f0 00091800 01050d03 fd7e0910 00010516  .........~......
 1300 06030009 00000105 20000204 01037f09  ........ .......
 1310 08000105 16030109 04000105 26000204  ............&...
 1320 0306037f 09040001 05200002 04010300  ......... ......
 1330 09000001 05180002 04010603 d100090c  ................
 1340 00010908 00000101 6b000000 02002100  ........k.....!.
 1350 00000101 fb0e0a00 01010101 00000001  ................
 1360 00706572 66636f75 6e746572 2e530000  .perfcounter.S..
 1370 00000000 05024009 01001703 01090400  ......@.........
 1380 01030109 04000103 01090400 01030109  ................
 1390 04000103 08090400 01030109 04000103  ................
 13a0 01090400 01030109 04000103 01090400  ................
 13b0 01090400 00010155 02000005 0004003c  .......U.......<
 13c0 00000001 0101fb0e 0d000101 01010000  ................
 13d0 00010000 0101011f 03000000 00460000  .............F..
 13e0 00830000 0002011f 020f0462 01000000  ...........b....
 13f0 62010000 00350100 00014601 00000205  b....5....F.....
 1400 01000502 68090100 1a050503 01090000  ....h...........
 1410 01050806 03000900 00010505 06030209  ................
 1420 08000105 08060300 09000001 05050603  ................
 1430 03090400 01030409 00000103 02090000  ................
 1440 01030109 00000103 01090000 01030209  ................
 1450 00000105 08060300 09000001 05090603  ................
 1460 01090800 01030109 00000105 0d030109  ................
 1470 00000105 1206037e 09000001 05160302  .......~........
 1480 09040001 05090603 03090400 01051106  ................
 1490 03000900 00010510 036c0908 00010501  .........l......
 14a0 031e0908 00010509 06037809 04000103  ..........x.....
 14b0 01090000 01052e06 03010900 00010527  ...............'
 14c0 03000908 0001051a 03000904 00010512  ................
 14d0 03000904 00010511 037f0904 00010509  ................
 14e0 06030109 04000105 05030309 00000103  ................
 14f0 01090000 01030109 00000105 0d060300  ................
 1500 09000001 05010603 04090400 01050503  ................
 1510 01090000 01050806 03000900 00010505  ................
 1520 06030209 08000105 08060300 09000001  ................
 1530 05050603 03090400 01030409 00000103  ................
 1540 02090000 01030109 00000103 01090000  ................
 1550 01030209 00000105 08060300 09000001  ................
 1560 05090603 01090800 01030109 00000105  ................
 1570 0d030109 00000105 1206037e 09000001  ...........~....
 1580 05150302 09040001 05090603 03090400  ................
 1590 01051206 03000900 00010510 036c0908  .............l..
 15a0 00010501 031e0908 00010509 06037809  ..............x.
 15b0 04000103 01090000 01052d06 03000900  ..........-.....
 15c0 00010526 03000908 00010518 03000904  ...&............
 15d0 00010511 03000904 00010509 06030109  ................
 15e0 04000105 12060300 09000001 05050603  ................
 15f0 03090400 01030109 00000103 01090000  ................
 1600 01050d06 03000900 00010904 00000101  ................
Contents of section .debug_info:
 0000 31000000 02000000 00000401 00000000  1...............
 0010 00000100 3c000100 00000000 08000000  ....<...........
 0020 47000000 01800255 00000001 00000100  G......U........
 0030 40000100 000c0c00 00050001 04210000  @............!..
 0040 0027c800 00001d3f 00000000 000000d7  .'.....?........
 0050 01000000 00000075 00000008 08078000  .......u........
 0060 00000804 078a0000 00080106 a3010000  ................
 0070 0e630000 00022b18 47000000 080108a1  .c....+.G.......
 0080 01000008 0205bb01 00000802 074a0100  .............J..
 0090 00080405 a7000000 0e1d0100 00024f19  ..............O.
 00a0 6f000000 08040785 00000008 0805a200  o...............
 00b0 00000e91 01000002 69192600 00002804  ........i.&...(.
 00c0 05696e74 000e6500 00000318 133b0000  .int..e......;..
 00d0 001c9000 00000e1f 01000003 30146300  ............0.c.
 00e0 00001ca1 0000000e 93010000 033c147d  .............<.}
 00f0 0000000e 5c000000 04d6172d 00000008  ....\......-....
 0100 10046901 00002904 15d80000 00080108  ..i...).........
 0110 aa010000 09d80000 00ef0000 000a2d00  ..............-.
 0120 00001700 09ad0000 00ff0000 000a2d00  ..............-.
 0130 00001f00 1cef0000 002a3901 000001f0  .........*9.....
 0140 17ff0000 00050330 0a01002b f2010000  .......0...+....
 0150 01200105 89000000 fc040100 44040000  . ..........D...
 0160 019c4605 00002c78 73000121 010e4605  ..F...,xs..!..F.
 0170 00000391 a47f05cd 0000001d 69002201  ............i.".
 0180 132d0000 000c0000 0005dc00 00001d78  .-.............x
 0190 00230112 a1000000 16000000 1d790028  .#...........y.(
 01a0 0112a100 00002900 00002dcb 0100008e  ......)...-.....
 01b0 0100000f 45010000 24010956 05000002  ....E...$..V....
 01c0 91400016 c0050100 34000000 ab010000  .@......4.......
 01d0 0f450100 00290109 66050000 02914000  .E...)..f.....@.
 01e0 16780701 00600000 00c80100 000f4501  .x...`........E.
 01f0 00002c01 0d760500 00029140 00160006  ..,..v.....@....
 0200 01004800 0000e501 00000f45 0100002f  ..H........E.../
 0210 01098605 00000291 400016e4 08010038  ........@......8
 0220 00000002 0200000f 45010000 32010996  ........E...2...
 0230 05000002 91400010 a6050000 68050100  .....@......h...
 0240 eb000000 28011640 02000002 b7050000  ....(..@........
 0250 3c000000 05eb0000 0003c005 000003cc  <...............
 0260 05000022 bc050100 290a0000 17015a02  ..."....).....Z.
 0270 86000000 00104c06 00007005 0100fc00  ......L...p.....
 0280 00003101 091f0500 00025f06 00004e00  ..1......._...N.
 0290 00000256 0600006b 00000005 14010000  ...V...k........
 02a0 016a0600 00850000 00017506 00009800  .j........u.....
 02b0 00000180 060000cd 00000018 8b060000  ................
 02c0 03918c7f 18960600 00029140 01a10600  ...........@....
 02d0 00df0000 0023c906 00003101 0000a203  .....#....1.....
 02e0 000001ca 060000f2 00000007 d5060000  ................
 02f0 31010000 01d60600 00030100 001e3709  1.............7.
 0300 00007005 01003f01 0000d927 2d030000  ..p...?....'-...
 0310 04460900 00045109 0000053f 01000003  .F....Q....?....
 0320 5c090000 11370900 00700501 003f0100  \....7...p...?..
 0330 003f1604 51090000 04460900 00053f01  .?..Q....F....?.
 0340 0000015c 09000034 01000007 67090000  ...\...4....g...
 0350 4d010000 01680900 00450100 00000000  M....h...E......
 0360 00001273 09000088 08010034 000000da  ...s.......4....
 0370 17028209 00006201 0000028d 0900006b  ......b........k
 0380 01000003 98090000 03a30900 00127309  ..............s.
 0390 00008808 01003400 00002a16 028d0900  ......4...*.....
 03a0 006b0100 00028209 00006201 00000198  .k........b.....
 03b0 09000075 01000001 a3090000 86010000  ...u............
 03c0 07ae0900 00600100 0001af09 00009701  .....`..........
 03d0 00000000 0000001e 74080000 50060100  ........t...P...
 03e0 6f010000 c018ea03 00000283 080000b4  o...............
 03f0 01000002 8c080000 bd010000 056f0100  .............o..
 0400 00019508 0000cb01 0000079e 0800007b  ...............{
 0410 01000001 9f080000 f3010000 00000011  ................
 0420 f2060000 f4060100 8a010000 c70502fc  ................
 0430 06000004 02000005 8a010000 18070700  ................
 0440 0003918c 7f011207 00002302 0000071b  ..........#.....
 0450 070000a1 01000018 1c070000 02914001  ..............@.
 0460 27070000 6b020000 24370900 00fc0601  '...k...$7......
 0470 00280000 00ab258c 04000004 46090000  .(....%.....F...
 0480 04510900 00035c09 00001237 090000fc  .Q....\....7....
 0490 06010028 0000003f 16045109 00000446  ...(...?..Q....F
 04a0 09000001 5c090000 89020000 07670900  ....\........g..
 04b0 00b00100 00016809 00009a02 00000000  ......h.........
 04c0 00247309 00003407 01003400 0000ac13  .$s...4...4.....
 04d0 03050000 02820900 00b70200 00028d09  ................
 04e0 0000c002 00000398 09000003 a3090000  ................
 04f0 12730900 00340701 00340000 002a1602  .s...4...4...*..
 0500 8d090000 c0020000 02820900 00b70200  ................
 0510 00019809 0000ca02 000001a3 090000db  ................
 0520 02000007 ae090000 bc010000 01af0900  ................
 0530 00ec0200 00000000 1f310700 001c0901  .........1......
 0540 001c0000 00013207 00000903 00000000  ......2.........
 0550 00000000 2ea80501 003e0700 00330500  .........>...3..
 0560 0017015a 02860000 22fc0501 003e0700  ...Z...."....>..
 0570 0017015a 02850000 00000009 a1000000  ...Z............
 0580 56050000 0a2d0000 00060009 d8000000  V....-..........
 0590 66050000 0a2d0000 00040009 d8000000  f....-..........
 05a0 76050000 0a2d0000 00060009 d8000000  v....-..........
 05b0 86050000 0a2d0000 001c0009 d8000000  .....-..........
 05c0 96050000 0a2d0000 000e0009 d8000000  .....-..........
 05d0 a6050000 0a2d0000 0002002f 28010000  .....-...../(...
 05e0 01fc0aa1 00000001 28060000 0c7800fc  ........(....x..
 05f0 1ea10000 00196578 70000201 09890000  ......exp.......
 0600 00197900 05010ea1 00000020 00060000  ..y........ ....
 0610 1ac50100 000a0112 a1000000 1a970000  ................
 0620 000b0112 a1000000 1a9c0100 000d0112  ................
 0630 a1000000 000b1a5d 01000016 010e8900  .......]........
 0640 00000b19 79320017 0112a100 00001978  ....y2.........x
 0650 79320018 0112a100 00000000 0030636c  y2...........0cl
 0660 7a0001e3 0c890000 00014c06 00000c78  z.........L....x
 0670 00e319a1 00000006 6e00e509 89000000  ........n.......
 0680 00258201 0000b5e2 0600000c 7900b520  .%..........y.. 
 0690 a1000000 13af0100 00b52c2d 0000000d  ..........,-....
 06a0 df010000 b70ea100 00000d7d 010000ba  ...........}....
 06b0 0eb20000 000d6201 0000c00e b2000000  ......b.........
 06c0 06646f74 00ca0ad8 0000000d 9d000000  .dot............
 06d0 ce0ae206 00000666 6900cf09 89000000  .......fi.......
 06e0 20ba0600 00066900 bb132d00 00000020   .....i...-.... 
 06f0 c9060000 066900d2 172d0000 00000b06  .....i...-......
 0700 746d7000 d71b6f00 00000b06 6400d816  tmp...o.....d...
 0710 89000000 00000009 d8000000 f2060000  ................
 0720 0a2d0000 001f0025 b0000000 a13e0700  .-.....%.....>..
 0730 000c7661 6c00a12c 6f000000 06627566  ..val..,o....buf
 0740 00a30adf 00000006 6900a409 89000000  ........i.......
 0750 0b06746d 7000a80e df000000 06746900  ..tmp........ti.
 0760 a90d8900 00000b06 6b00ae12 89000000  ........k.......
 0770 00000031 76000000 01890d40 030100c8  ...1v......@....
 0780 00000001 9c640800 00147661 6c008925  .....d....val..%
 0790 6f000000 19030000 32627566 00018b0a  o.......2buf....
 07a0 64080000 02916c21 70008c0b d3000000  d.....l!p.......
 07b0 31030000 1e370900 00840301 00940000  1....7..........
 07c0 009518e4 07000004 46090000 04510900  ........F....Q..
 07d0 00059400 0000035c 09000011 37090000  .......\....7...
 07e0 84030100 94000000 3f160451 09000004  ........?..Q....
 07f0 46090000 05940000 00015c09 00006003  F.........\...`.
 0800 00000767 090000a0 00000001 68090000  ...g........h...
 0810 71030000 00000000 00117309 00008c03  q.........s.....
 0820 0100af00 00009713 02820900 008e0300  ................
 0830 00028d09 00009703 000005af 00000003  ................
 0840 98090000 03a30900 00117309 00008c03  ..........s.....
 0850 0100af00 00002a16 028d0900 00970300  ......*.........
 0860 00028209 00008e03 000005af 00000001  ................
 0870 98090000 a1030000 01a30900 00b20300  ................
 0880 0007ae09 0000bb00 000001af 090000c3  ................
 0890 03000000 00000000 0009d800 00007408  ..............t.
 08a0 00000a2d 00000013 001b3301 00006711  ...-......3...g.
 08b0 b2000000 aa080000 0c610067 20a10000  .........a.g ...
 08c0 000c6200 672ca100 00000672 00680eb2  ..b.g,.....r.h..
 08d0 0000000b 06690069 0e890000 00000026  .....i.i.......&
 08e0 cc010000 01600aa1 000000ac 04010030  .....`.........0
 08f0 00000001 9c0a0900 00146100 601ca100  ..........a.`...
 0900 0000e003 00001462 006028a1 00000003  .......b.`(.....
 0910 04000012 0a090000 b0040100 28000000  ............(...
 0920 620c0219 09000021 04000002 22090000  b......!...."...
 0930 31040000 012b0900 00410400 0000001b  1....+...A......
 0940 e8010000 5311a100 00003709 00000c61  ....S.....7....a
 0950 00531fa1 0000000c 6200532b a1000000  .S......b.S+....
 0960 0df70100 00550ea1 00000000 1bfe0100  .....U..........
 0970 003f166f 00000073 09000013 14010000  .?.o...s........
 0980 3f296f00 00001375 0100003f 416f0000  ?)o....u...?Ao..
 0990 000dd501 00004413 6f000000 0b066900  ......D.o.....i.
 09a0 460e8900 00000000 1bed0100 002a166f  F............*.o
 09b0 000000ba 09000013 14010000 2a296f00  ............*)o.
 09c0 00001375 0100002a 416f0000 000d6d00  ...u...*Ao....m.
 09d0 00002f13 6f000000 0dd50100 0030136f  ../.o........0.o
 09e0 0000000b 06690032 0e890000 00000026  .....i.2.......&
 09f0 c1000000 051f09d1 00000008 040100a4  ................
 0a00 00000001 9c190a00 00338c01 00000120  .........3..... 
 0a10 14d10000 00015a14 73726300 2026190a  ......Z.src. &..
 0a20 00005204 0000146e 002032be 00000083  ..R....n. 2.....
 0a30 04000021 6400220e 1f0a0000 b7040000  ...!d.".........
 0a40 21730023 14240a00 00e60400 0000151e  !s.#.$..........
 0a50 0a000034 15900000 00159c00 000035a6  ...4..........5.
 0a60 0500003c 00010004 03000001 9cd50b00  ...<............
 0a70 0002b705 00001e05 000001c0 0500002f  .............../
 0a80 05000001 cc050000 49050000 10280600  ........I....(..
 0a90 00480001 000c0000 00020114 840a0000  .H..............
 0aa0 02390600 006a0500 00050c00 00000142  .9...j.........B
 0ab0 060000bb 05000000 0023d605 00001f00  .........#......
 0ac0 0000df0a 000003db 05000003 e7050000  ................
 0ad0 03f30500 00367408 00002c01 01003800  .....6t...,...8.
 0ae0 0000010f 01190483 08000004 8c080000  ................
 0af0 05380000 00019508 0000f505 0000079e  .8..............
 0b00 08000044 00000001 9f080000 1d060000  ...D............
 0b10 00000000 1f000600 00b40101 00240100  .............$..
 0b20 00010106 00002e06 00001f0d 060000b8  ................
 0b30 01010014 01000003 0e060000 03190600  ................
 0b40 00107408 0000b801 01005000 00001701  ..t.......P.....
 0b50 224d0b00 00048308 0000048c 08000005  "M..............
 0b60 50000000 01950800 00380600 00079e08  P........8......
 0b70 00005c00 0000019f 0800004a 06000000  ..\........J....
 0b80 00001074 080000c4 0101006b 00000018  ...t.......k....
 0b90 0123920b 00000283 0800005b 06000004  .#.........[....
 0ba0 8c080000 056b0000 00019508 00006406  .....k........d.
 0bb0 0000079e 08000078 00000001 9f080000  .......x........
 0bc0 8c060000 00000037 74080000 64020100  .......7t...d...
 0bd0 5c000000 01190118 02830800 009d0600  \...............
 0be0 00028c08 0000a606 00000195 080000af  ................
 0bf0 06000007 9e080000 88000000 019f0800  ................
 0c00 00d70600 00000000 000038a6 050000dc  ..........8.....
 0c10 04010020 00000001 9c02b705 0000e806  ... ............
 0c20 000003c0 05000003 cc050000 39ec0401  ............9...
 0c30 00290a00 0017015a 09a303a5 0a26a82d  .).....Z.....&.-
 0c40 a8000000 00220000 0002005b 03000004  .....".....[....
 0c50 01481300 00400901 00680901 00030200  .H...@...h......
 0c60 00080000 00470000 0001800a 02000005  .....G..........
 0c70 0001046f 0300000d c8000000 1d620100  ...o.........b..
 0c80 00000000 00680901 00980000 00b71300  .....h..........
 0c90 00010807 80000000 010106a3 01000001  ................
 0ca0 0108a101 00000102 05bb0100 00010207  ................
 0cb0 4a010000 010405a7 00000006 1d010000  J...............
 0cc0 024f195c 00000001 04078500 00000108  .O.\............
 0cd0 05a20000 000e0405 696e7400 0104078a  ........int.....
 0ce0 00000006 1f010000 03301450 0000000f  .........0.P....
 0cf0 2a020000 012b1426 000000b4 0901004c  *....+.&.......L
 0d00 00000001 9c420100 00076100 2b260000  .....B....a.+&..
 0d10 00330700 00081102 00002b6a 00000073  .3........+j...s
 0d20 07000009 32d10000 00037600 331c2600  ....2.....v.3.&.
 0d30 00000377 00341242 01000000 04750035  ...w.4.B.....u.5
 0d40 07b80000 00046c6f 7700380e 78000000  ......low.8.x...
 0d50 021b0200 00390e78 00000086 07000002  .....9.x........
 0d60 34020000 3a0e7800 00009207 00000217  4...:.x.........
 0d70 0200003a 1b780000 00ac0700 000ac809  ...:.x..........
 0d80 01000c00 00002d01 00000573 003d1271  ......-....s.=.q
 0d90 000000c1 07000000 0be40901 00180000  ................
 0da0 000c7300 44710000 00015c00 00107800  ..s.Dq....\...x.
 0db0 00005201 00001171 00000001 00122002  ..R....q...... .
 0dc0 00000108 14260000 00680901 004c0000  .....&...h...L..
 0dd0 00019c07 61000826 000000ce 07000008  ....a..&........
 0de0 11020000 086a0000 000b0800 00090f9b  .....j..........
 0df0 01000003 7600101c 26000000 03770011  ....v...&....w..
 0e00 12420100 00000475 00120782 01000005  .B.....u........
 0e10 6c6f7700 150e7800 00001d08 0000131b  low...x.........
 0e20 02000001 160e7800 00000234 02000017  ......x....4....
 0e30 0e780000 00280800 00021702 0000171b  .x...(..........
 0e40 78000000 3a080000 0a7c0901 000c0000  x...:....|......
 0e50 00f80100 00057300 1a127100 00005108  ......s...q...Q.
 0e60 0000000b 98090100 18000000 0c730021  .............s.!
 0e70 71000000 015c0000 00                 q....\...       
Contents of section .debug_abbrev:
 0000 01110110 06110112 01030e1b 0e250e13  .............%..
 0010 05000002 2e00030e 3f0c1101 12010000  ........?.......
 0020 00013400 31130217 00000205 00311302  ..4.1........1..
 0030 17000003 34003113 00000405 00311300  ....4.1......1..
 0040 00050b01 55170000 06340003 083a2101  ....U....4...:!.
 0050 3b0b390b 49130000 070b0131 13551700  ;.9.I......1.U..
 0060 00082400 0b0b3e0b 030e0000 09010149  ..$...>........I
 0070 13011300 000a2100 49132f0b 00000b0b  ......!.I./.....
 0080 0100000c 05000308 3a21013b 0b390b49  ........:!.;.9.I
 0090 1300000d 3400030e 3a21013b 0b390b49  ....4...:!.;.9.I
 00a0 1300000e 1600030e 3a0b3b0b 390b4913  ........:.;.9.I.
 00b0 00000f34 00030e3a 21013b05 390b4913  ...4...:!.;.9.I.
 00c0 02180000 101d0131 13520155 17582101  .......1.R.U.X!.
 00d0 5905570b 01130000 111d0131 13520155  Y.W........1.R.U
 00e0 17582101 590b570b 0000121d 01311311  .X!.Y.W......1..
 00f0 01120658 2101590b 570b0000 13050003  ...X!.Y.W.......
 0100 0e3a2101 3b0b390b 49130000 14050003  .:!.;.9.I.......
 0110 083a2101 3b0b390b 49130217 0000150f  .:!.;.9.I.......
 0120 000b2104 49130000 160b0111 01120601  ..!.I...........
 0130 13000017 49000218 7e180000 18340031  ....I...~....4.1
 0140 13021800 00193400 03083a21 013b0539  ......4...:!.;.9
 0150 0b491300 001a3400 030e3a21 013b0539  .I....4...:!.;.9
 0160 0b491300 001b2e01 030e3a21 013b0b39  .I........:!.;.9
 0170 0b271949 13202101 01130000 1c260049  .'.I. !......&.I
 0180 1300001d 34000308 3a21013b 05390b49  ....4...:!.;.9.I
 0190 13021700 001e1d01 31135201 55175821  ........1.R.U.X!
 01a0 01590b57 0b011300 001f0b01 31131101  .Y.W........1...
 01b0 12060000 200b0101 13000021 34000308  .... ......!4...
 01c0 3a21013b 0b390b49 13021700 00224801  :!.;.9.I....."H.
 01d0 7d017f13 0000230b 01311355 17011300  }.....#..1.U....
 01e0 00241d01 31131101 12065821 01590b57  .$..1.....X!.Y.W
 01f0 0b011300 00252e01 030e3a21 013b0b39  .....%....:!.;.9
 0200 210d2719 20210101 13000026 2e013f19  !.'. !.....&..?.
 0210 030e3a0b 3b0b390b 27194913 11011206  ..:.;.9.'.I.....
 0220 40187a19 01130000 27110125 0e130b03  @.z.....'..%....
 0230 1f1b1f55 17110110 17000028 24000b0b  ...U.......($...
 0240 3e0b0308 0000290f 000b0b00 002a3400  >.....)......*4.
 0250 030e3a0b 3b0b390b 49130218 00002b2e  ..:.;.9.I.....+.
 0260 013f1903 0e3a0b3b 05390b27 19491311  .?...:.;.9.'.I..
 0270 01120640 187a1901 1300002c 34000308  ...@.z.....,4...
 0280 3a0b3b05 390b4913 02180000 2d0b0155  :.;.9.I.....-..U
 0290 17011300 002e4801 7d017f13 01130000  ......H.}.......
 02a0 2f2e013f 19030e3a 0b3b0b39 0b271949  /..?...:.;.9.'.I
 02b0 13200b01 13000030 2e010308 3a0b3b0b  . .....0....:.;.
 02c0 390b2719 4913200b 01130000 312e0103  9.'.I. .....1...
 02d0 0e3a0b3b 0b390b27 19110112 0640187a  .:.;.9.'.....@.z
 02e0 19011300 00323400 03083a0b 3b0b390b  .....24...:.;.9.
 02f0 49130218 00003305 00030e3a 0b3b0b39  I.....3....:.;.9
 0300 0b491302 18000034 26000000 352e0131  .I.....4&...5..1
 0310 13110112 0640187a 19011300 00361d01  .....@.z.....6..
 0320 31135201 5517580b 5905570b 0000371d  1.R.U.X.Y.W...7.
 0330 01311311 01120658 0b590557 0b000038  .1.....X.Y.W...8
 0340 2e013113 11011206 40187a19 00003948  ..1.....@.z...9H
 0350 017d0182 01197f13 00000001 11001006  .}..............
 0360 11011201 030e1b0e 250e1305 00000001  ........%.......
 0370 24000b0b 3e0b030e 00000234 00030e3a  $...>......4...:
 0380 21013b0b 390b4913 02170000 030d0003  !.;.9.I.........
 0390 083a2101 3b0b390b 49130000 04340003  .:!.;.9.I....4..
 03a0 083a2101 3b0b390b 49130000 05340003  .:!.;.9.I....4..
 03b0 083a2101 3b0b390b 49130217 00000616  .:!.;.9.I.......
 03c0 00030e3a 0b3b0b39 0b491300 00070500  ...:.;.9.I......
 03d0 03083a21 013b0b39 21314913 02170000  ..:!.;.9!1I.....
 03e0 08050003 0e3a2101 3b0b3921 38491302  .....:!.;.9!8I..
 03f0 17000009 17010b21 083a2101 3b0b3921  .......!.:!.;.9!
 0400 05011300 000a0b01 11011206 01130000  ................
 0410 0b0b0111 01120600 000c3400 03083a21  ..........4...:!
 0420 013b0b39 21124913 02180000 0d110125  .;.9!.I........%
 0430 0e130b03 1f1b1f11 01120610 1700000e  ................
 0440 24000b0b 3e0b0308 00000f2e 013f1903  $...>........?..
 0450 0e3a0b3b 0b390b27 19491311 01120640  .:.;.9.'.I.....@
 0460 187a1901 13000010 01014913 01130000  .z........I.....
 0470 11210049 132f0b00 00122e01 3f19030e  .!.I./......?...
 0480 3a0b3b0b 390b2719 49131101 12064018  :.;.9.'.I.....@.
 0490 7a190000 13340003 0e3a0b3b 0b390b49  z....4...:.;.9.I
 04a0 13000000                             ....            
Contents of section .debug_aranges:
 0000 1c000000 02000000 00000400 00000000  ................
 0010 00000100 3c000000 00000000 00000000  ....<...........
 0020 24000000 02003500 00000400 00000000  $.....5.........
 0030 3c000100 c0040000 fc040100 44040000  <...........D...
 0040 00000000 00000000 1c000000 0200450c  ..............E.
 0050 00000400 00000000 40090100 28000000  ........@...(...
 0060 00000000 00000000 1c000000 02006b0c  ..............k.
 0070 00000400 00000000 68090100 98000000  ........h.......
 0080 00000000 00000000                    ........        
Contents of section .debug_str:
 0000 73746172 742e5300 2f686f6d 652f6b69  start.S./home/ki
 0010 77692f70 726f6a65 63742f43 6f6d7075  wi/project/Compu
 0020 7465722d 41726368 69746563 74757265  ter-Architecture
 0030 5f485732 2f517569 7a335f50 6c617967  _HW2/Quiz3_Playg
 0040 726f756f 6e640047 4e552041 5320322e  rouond.GNU AS 2.
 0050 34332e31 005f7374 61727400 73697a65  43.1._start.size
 0060 5f74005f 5f75696e 74385f74 0071756f  _t.__uint8_t.quo
 0070 7469656e 74007072 696e745f 64656300  tient.print_dec.
 0080 6c6f6e67 206c6f6e 6720756e 7369676e  long long unsign
 0090 65642069 6e740064 656c7461 00666275  ed int.delta.fbu
 00a0 66006c6f 6e67206c 6f6e6720 696e7400  f.long long int.
 00b0 7072696e 745f7569 6e745f6e 6f5f6e6c  print_uint_no_nl
 00c0 006d656d 63707900 474e5520 43313720  .memcpy.GNU C17 
 00d0 31342e32 2e30202d 6d616269 3d696c70  14.2.0 -mabi=ilp
 00e0 3332202d 6d697361 2d737065 633d3230  32 -misa-spec=20
 00f0 31393132 3133202d 6d617263 683d7276  191213 -march=rv
 0100 3332695f 7a696373 72202d67 202d4f66  32i_zicsr -g -Of
 0110 61737400 64697669 64656e64 005f5f75  ast.dividend.__u
 0120 696e7433 325f7400 66617374 5f727371  int32_t.fast_rsq
 0130 7274006d 756c3332 00727371 72745f74  rt.mul32.rsqrt_t
 0140 61626c65 005f6d73 67007368 6f727420  able._msg.short 
 0150 756e7369 676e6564 20696e74 00697465  unsigned int.ite
 0160 72006672 61633634 006c6f6e 6720646f  r.frac64.long do
 0170 75626c65 00646976 69736f72 006d756c  uble.divisor.mul
 0180 74007072 696e745f 71313600 64657374  t.print_q16.dest
 0190 005f5f75 696e7436 345f7400 66726163  .__uint64_t.frac
 01a0 00756e73 69676e65 64206368 61720066  .unsigned char.f
 01b0 7261635f 64696769 74730073 686f7274  rac_digits.short
 01c0 20696e74 00795f6e 65787400 5f5f6d75   int.y_next.__mu
 01d0 6c736933 0072656d 61696e64 65720069  lsi3.remainder.i
 01e0 6e745f70 61727400 756d756c 00756469  nt_part.umul.udi
 01f0 76006d61 696e0072 6573756c 7400756d  v.main.result.um
 0200 6f640070 65726663 6f756e74 65722e53  od.perfcounter.S
 0210 00736869 6674006e 65775f68 69676800  .shift.new_high.
 0220 5f5f6173 686c6469 33005f5f 6c736872  __ashldi3.__lshr
 0230 64693300 6e65775f 6c6f7700           di3.new_low.    
Contents of section .debug_loclists:
 0000 23070000 05000400 00000000 08600501  #............`..
 0010 00140230 9f000684 05010004 00fc0401  ...0............
 0020 66048805 bc070166 0006c005 01000400  f......f........
 0030 bc040165 04cc04f8 06016500 06a80501  ...e......e.....
 0040 00040018 01660490 07980701 66000648  .....f......f..H
 0050 06010004 00b00202 369f04c4 039c0502  ........6.......
 0060 369f04c8 05f00502 369f0006 48060100  6.......6...H...
 0070 0400b002 016504c4 039c0501 6504c805  .....e......e...
 0080 f0050165 00065806 01000400 a401015c  ...e..X........\
 0090 04b403c8 03015c00 06580601 000400a0  ......\..X......
 00a0 020a9e08 40420f00 00000000 04b4038c  ....@B..........
 00b0 050a9e08 40420f00 00000000 04b805e0  ....@B..........
 00c0 050a9e08 40420f00 00000000 0008f406  ....@B..........
 00d0 0100040a 9e080000 00000000 00000006  ................
 00e0 50080100 04007c02 309f047c 94010236  P.....|.0..|...6
 00f0 9f000658 08010004 00640160 04648c01  ...X.....d.`.d..
 0100 015c0006 50080100 04000802 359f0408  .\..P.......5...
 0110 6c087b00 91001c23 459f046c 70087b00  l.{....#E..lp.{.
 0120 91001c23 449f0470 9401087b 0091001c  ...#D..p...{....
 0130 23459f00 06580801 00040008 02309f04  #E...X.......0..
 0140 0828015f 00065808 01000400 08024f9f  .(._..X.......O.
 0150 04081c01 5e041c24 037e019f 04242801  ....^..$.~...$(.
 0160 5e000888 08010034 01600008 88080100  ^......4.`......
 0170 34023a9f 00068808 01000400 0c02309f  4.:...........0.
 0180 040c3401 5c000688 08010004 000c0230  ..4.\..........0
 0190 9f040c34 015f0006 88080100 04000c02  ...4._..........
 01a0 4f9f040c 24015e04 2430037e 019f0430  O...$.^.$0.~...0
 01b0 34015e00 08580601 0068016c 00085806  4.^..X...h.l..X.
 01c0 01006806 0c40420f 009f0006 58060100  ..h..@B.....X...
 01d0 0400200a 9e080000 00000000 00000420  .. ............ 
 01e0 34065a93 045b9304 043c6806 5a93045b  4.Z..[...<h.Z..[
 01f0 93040006 58060100 04002002 309f0420  ....X..... .0.. 
 0200 68015f00 06f40601 00040074 015c0474  h._........t.\.t
 0210 8401015b 049802ac 02015c04 9c04c404  ...[......\.....
 0220 015b0006 f4060100 04008401 02309f04  .[...........0..
 0230 98029c02 02309f04 9c02ac02 02319f04  .....0.......1..
 0240 ac02c002 0156049c 04a80402 309f04a8  .....V......0...
 0250 04b40408 7e009100 1c23759f 04b404c4  ....~....#u.....
 0260 04087e00 91001c23 749f0006 f8060100  ..~....#t.......
 0270 04000402 309f0404 30015a04 30800101  ....0...0.Z.0...
 0280 56049804 c0040156 0006fc06 01000400  V......V........
 0290 0802309f 04082801 5f0006fc 06010004  ..0...(._.......
 02a0 0008024f 9f04081c 015e041c 24037e01  ...O.....^..$.~.
 02b0 9f042428 015e0008 34070100 34015c00  ..$(.^..4...4.\.
 02c0 08340701 0034023a 9f000634 07010004  .4...4.:...4....
 02d0 000c0230 9f040c34 015b0006 34070100  ...0...4.[..4...
 02e0 04000c02 309f040c 34015f00 06340701  ....0...4._..4..
 02f0 0004000c 024f9f04 0c24015e 04243003  .....O...$.^.$0.
 0300 7e019f04 3034015e 00081c09 01001008  ~...04.^........
 0310 7f009100 1c23409f 00064003 01000400  .....#@...@.....
 0320 1c015a04 40b80101 5a04b801 c8010160  ..Z.@...Z......`
 0330 00064403 01000400 0803917f 9f040814  ..D.............
 0340 03917e9f 04141803 917d9f04 3c400391  ..~......}..<@..
 0350 7e9f0440 80010156 048001c4 01016c00  ~..@...V......l.
 0360 06900301 00040008 02309f04 0828015f  .........0...(._
 0370 00069003 01000400 08024f9f 04081c01  ..........O.....
 0380 5e041c24 037e019f 04242801 5e0008c4  ^..$.~...$(.^...
 0390 03010034 015a0008 c4030100 34023a9f  ...4.Z......4.:.
 03a0 0006c403 01000400 0c02309f 040c3401  ..........0...4.
 03b0 600006c4 03010004 000c0230 9f040c34  `..........0...4
 03c0 015f0006 c4030100 04000c02 4f9f040c  ._..........O...
 03d0 24015e04 2430037e 019f0430 34015e00  $.^.$0.~...04.^.
 03e0 06ac0401 00040008 015a0408 0c015e04  .........Z....^.
 03f0 0c2c0aa3 03a50a26 a82da800 9f042c30  .,.....&.-....,0
 0400 015e0006 ac040100 04000c01 5b040c2c  .^..........[..,
 0410 0aa303a5 0b26a82d a8009f04 2c30015b  .....&.-....,0.[
 0420 0006b004 01000400 04015a04 0428015e  ..........Z..(.^
 0430 0006b004 01000400 18015b04 2028015b  ..........[. (.[
 0440 0006b004 01000400 0802309f 04082801  ..........0...(.
 0450 5a000608 04010004 003c015b 043c8401  Z........<.[.<..
 0460 0aa303a5 0b26a82d a8009f04 8401a001  .....&.-........
 0470 015b04a0 01a4010a a303a50b 26a82da8  .[..........&.-.
 0480 009f0006 08040100 04000401 5c04043c  ............\..<
 0490 0160045c 64016004 64740380 7f9f0474  .`.\d.`.dt.....t
 04a0 80010380 7e9f0480 01840103 807d9f04  ....~........}..
 04b0 8401a001 01600006 08040100 04003c01  .....`........<.
 04c0 5a045c68 037f019f 04687803 7f029f04  Z.\h.....hx.....
 04d0 78840103 7f039f04 84018c01 015a048c  x............Z..
 04e0 01a00101 5f000608 04010004 003c015b  ...._........<.[
 04f0 045c6803 7d019f04 6878037d 029f0478  .\h.}...hx.}...x
 0500 8401037d 039f0484 018c0101 5b048c01  ...}........[...
 0510 9801015e 049801a0 01037e7f 9f00063c  ...^......~....<
 0520 00010004 0024015a 04248406 01560006  .....$.Z.$...V..
 0530 a0000100 0400ac01 015d04d0 04880501  .........]......
 0540 5d049005 a005015d 0006bc00 01000400  ]......]........
 0550 d801015a 04e801a8 04015a04 d004ec04  ...Z......Z.....
 0560 015a04f4 04840501 5a000648 00010004  .Z......Z..H....
 0570 0018015a 04182001 5f042024 057f0038  ...Z.. ._. $...8
 0580 249f0424 34015f04 3438057f 0034249f  $..$4._.48...4$.
 0590 04384801 5f04484c 057f0032 249f04cc  .8H._.HL...2$...
 05a0 02d00201 5604d002 dc02015f 049c05a0  ....V......_....
 05b0 05015f04 e005e805 01560006 4c000100  .._......V..L...
 05c0 04001402 309f0420 24037c08 9f042c30  ....0.. $.|...,0
 05d0 037e049f 04303401 5e043c44 037e029f  .~...04.^.<D.~..
 05e0 04444801 5e04484c 037e019f 04c802d8  .DH.^.HL.~......
 05f0 0202409f 00062c01 01000400 200a9e08  ..@...,..... ...
 0600 00000000 00000000 04203406 5b93045c  ......... 4.[..\
 0610 9304043c 68065b93 045c9304 00062c01  ...<h.[..\....,.
 0620 01000400 2002309f 04206801 5f0008b4  .... .0.. h._...
 0630 01010018 02309f00 08cc0101 00080a9e  .....0..........
 0640 08000000 00000000 000006cc 01010004  ................
 0650 00080230 9f040830 015f0008 fc010100  ...0...0._......
 0660 58015600 06fc0101 00040010 0a9e0800  X.V.............
 0670 00000000 00000004 1024065c 93046f93  .........$.\..o.
 0680 04042c58 065c9304 6f930400 06fc0101  ..,X.\..o.......
 0690 00040010 02309f04 1058015f 00086402  .....0...X._..d.
 06a0 01005c01 5a000864 0201005c 015c0006  ..\.Z..d...\.\..
 06b0 64020100 0400140a 9e080000 00000000  d...............
 06c0 00000414 28065593 046f9304 04305c06  ....(.U..o...0\.
 06d0 5593046f 93040006 64020100 04001402  U..o....d.......
 06e0 309f0414 5c015f00 06dc0401 0004000f  0...\._.........
 06f0 015a040f 100aa303 a50a26a8 2da8009f  .Z........&.-...
 0700 04101401 5a041418 0aa303a5 0a26a82d  ....Z........&.-
 0710 a8009f04 181c015a 041c200a a303a50a  .......Z.. .....
 0720 26a82da8 009f0033 01000005 00040000  &.-....3........
 0730 00000004 4c68065a 93045b93 04046870  ....Lh.Z..[...hp
 0740 06a303a5 0a269f04 7074065a 93045b93  .....&..pt.Z..[.
 0750 0404747c 06a303a5 0a269f04 7c8c0106  ..t|.....&..|...
 0760 5a93045b 9304048c 01980106 a303a50a  Z..[............
 0770 269f0004 4c64015c 04647003 7c209f04  &...Ld.\.dp.| ..
 0780 70980101 5c000458 6c015b04 7c940101  p...\..Xl.[.|...
 0790 5b000458 6802309f 04687001 5a047c90  [..Xh.0..hp.Z.|.
 07a0 0102309f 04900198 01015a00 04587002  ..0.......Z..Xp.
 07b0 309f047c 94010230 9f049401 9801015b  0..|...0.......[
 07c0 00046064 037c609f 04647001 5c000400  ..`d.|`..dp.\...
 07d0 20065a93 045b9304 04202406 a303a50a   .Z..[... $.....
 07e0 269f0424 28065a93 045b9304 04283006  &..$(.Z..[...(0.
 07f0 a303a50a 269f0430 48065a93 045b9304  ....&..0H.Z..[..
 0800 04484c06 a303a50a 269f0004 0018015c  .HL.....&......\
 0810 04182403 7c209f04 244c015c 00040c20  ..$.| ..$L.\... 
 0820 015a0430 48015a00 040c2402 309f0430  .Z.0H.Z...$.0..0
 0830 4802309f 04484c01 5a00040c 1c02309f  H.0..HL.Z.....0.
 0840 041c2401 5b043048 02309f04 484c015b  ..$.[.0H.0..HL.[
 0850 00041418 037c609f 04182401 5c00      .....|`...$.\.  
Contents of section .debug_rnglists:
 0000 e2010000 05000400 00000000 05480001  .............H..
 0010 00040050 04cc02dc 02049c05 a0050005  ...P............
 0020 c0000100 0400d401 04e401f4 0104d004  ................
 0030 e80404f0 04800500 052c0101 00040068  .........,.....h
 0040 04787800 052c0101 00040000 04086800  .xx..,........h.
 0050 05b80101 0004000c 04144400 05b80101  ..........D.....
 0060 0004000c 04141404 18440005 c4010100  .........D......
 0070 04000404 38900100 05c40101 00040004  ....8...........
 0080 04383804 40900100 05640201 00040000  .88.@....d......
 0090 04085c00 05840301 00040008 040c3400  ..\...........4.
 00a0 05840301 00040008 040c1004 14340005  .............4..
 00b0 8c030100 04000404 386c0005 8c030100  ........8l......
 00c0 04000404 3838043c 4004446c 00056005  ....88.<@.Dl..`.
 00d0 01000400 800504ac 05e00700 05680501  .............h..
 00e0 000400f0 0404a405 d8070005 68050100  ............h...
 00f0 04000804 405804d0 07d80700 05700501  ....@X.......p..
 0100 00040004 04d80188 04049c05 f40604ac  ................
 0110 07c80700 05700501 00040004 04d801e8  .....p..........
 0120 0104e801 8804049c 05f40604 ac07c807  ................
 0130 00057005 01000400 0404e005 dc060005  ..p.............
 0140 70050100 04000404 e8059006 00057005  p.............p.
 0150 01000400 0404e805 ec0504f0 05900600  ................
 0160 05880801 00040000 04040804 0c340005  .............4..
 0170 50060100 04000404 08700005 50060100  P........p..P...
 0180 04000404 08100418 700005f4 06010004  ........p.......
 0190 00000404 84010498 02c00204 a804c404  ................
 01a0 0005f806 01000400 800104a4 04c00400  ................
 01b0 05fc0601 00040004 04082800 05340701  ..........(..4..
 01c0 00040000 04040804 0c340005 74050100  .........4..t...
 01d0 04000c04 102c0007 3c000100 c00907fc  .....,..<.......
 01e0 040100c4 0800                        ......          
Contents of section .debug_line_str:
 0000 2f686f6d 652f6b69 77692f70 726f6a65  /home/kiwi/proje
 0010 63742f43 6f6d7075 7465722d 41726368  ct/Computer-Arch
 0020 69746563 74757265 5f485732 2f517569  itecture_HW2/Qui
 0030 7a335f50 6c617967 726f756f 6e64006d  z3_Playgrouond.m
 0040 61696e2e 63002f68 6f6d652f 6b697769  ain.c./home/kiwi
 0050 2f726973 63762d6e 6f6e652d 656c662d  /riscv-none-elf-
 0060 6763632f 72697363 762d6e6f 6e652d65  gcc/riscv-none-e
 0070 6c662f69 6e636c75 64652f6d 61636869  lf/include/machi
 0080 6e65002f 686f6d65 2f6b6977 692f7269  ne./home/kiwi/ri
 0090 7363762d 6e6f6e65 2d656c66 2d676363  scv-none-elf-gcc
 00a0 2f726973 63762d6e 6f6e652d 656c662f  /riscv-none-elf/
 00b0 696e636c 7564652f 73797300 2f686f6d  include/sys./hom
 00c0 652f6b69 77692f72 69736376 2d6e6f6e  e/kiwi/riscv-non
 00d0 652d656c 662d6763 632f6c69 622f6763  e-elf-gcc/lib/gc
 00e0 632f7269 7363762d 6e6f6e65 2d656c66  c/riscv-none-elf
 00f0 2f31342e 322e302f 696e636c 75646500  /14.2.0/include.
 0100 2f686f6d 652f6b69 77692f72 69736376  /home/kiwi/riscv
 0110 2d6e6f6e 652d656c 662d6763 632f7269  -none-elf-gcc/ri
 0120 7363762d 6e6f6e65 2d656c66 2f696e63  scv-none-elf/inc
 0130 6c756465 005f6465 6661756c 745f7479  lude._default_ty
 0140 7065732e 68005f73 7464696e 742e6800  pes.h._stdint.h.
 0150 73746464 65662e68 00737472 696e672e  stddef.h.string.
 0160 68006c69 62676363 5f68656c 70657273  h.libgcc_helpers
 0170 2e6300                               .c.             
Contents of section .debug_frame:
 0000 0c000000 ffffffff 0300017c 010c0200  ...........|....
 0010 1c000000 00000000 3c000100 04030000  ........<.......
 0020 440e1044 88010398 020ac844 0e00440b  D..D.......D..D.
 0030 18000000 00000000 40030100 c8000000  ........@.......
 0040 440e2078 0a0e0044 0b000000 0c000000  D. x...D........
 0050 00000000 08040100 a4000000 0c000000  ................
 0060 00000000 ac040100 30000000 0c000000  ........0.......
 0070 00000000 dc040100 20000000 3c000000  ........ ...<...
 0080 00000000 fc040100 44040000 680e8001  ........D...h...
 0090 60880289 03920493 05940681 01950796  `...............
 00a0 0803a002 0ac144c8 44c944d2 44d344d4  ......D.D.D.D.D.
 00b0 44d544d6 480e0044 0b000000 0c000000  D.D.H..D........
 00c0 ffffffff 0300017c 010c0200 0c000000  .......|........
 00d0 bc000000 68090100 4c000000 0c000000  ....h...L.......
 00e0 bc000000 b4090100 4c000000           ........L...    

Disassembly of section .text:

00010000 <_start>:
   10000:	00002117          	auipc	sp,0x2
   10004:	ad010113          	addi	sp,sp,-1328 # 11ad0 <__stack_top>
   10008:	00001297          	auipc	t0,0x1
   1000c:	ac428293          	addi	t0,t0,-1340 # 10acc <__bss_end>
   10010:	00001317          	auipc	t1,0x1
   10014:	abc30313          	addi	t1,t1,-1348 # 10acc <__bss_end>
   10018:	0062d863          	bge	t0,t1,10028 <_start+0x28>
   1001c:	0002a023          	sw	zero,0(t0)
   10020:	00428293          	addi	t0,t0,4
   10024:	ff5ff06f          	j	10018 <_start+0x18>
   10028:	4d4000ef          	jal	104fc <main>
   1002c:	05d00893          	li	a7,93
   10030:	00000513          	li	a0,0
   10034:	00000073          	ecall
   10038:	0000006f          	j	10038 <_start+0x38>

0001003c <fast_rsqrt.part.0>:
   1003c:	ff010113          	addi	sp,sp,-16
   10040:	00812623          	sw	s0,12(sp)
   10044:	00050313          	mv	t1,a0
   10048:	2e050063          	beqz	a0,10328 <fast_rsqrt.part.0+0x2ec>
   1004c:	000107b7          	lui	a5,0x10
   10050:	14f56263          	bltu	a0,a5,10194 <fast_rsqrt.part.0+0x158>
   10054:	00050793          	mv	a5,a0
   10058:	00800613          	li	a2,8
   1005c:	00000713          	li	a4,0
   10060:	010006b7          	lui	a3,0x1000
   10064:	00d7f663          	bgeu	a5,a3,10070 <fast_rsqrt.part.0+0x34>
   10068:	00879793          	slli	a5,a5,0x8
   1006c:	00060713          	mv	a4,a2
   10070:	100006b7          	lui	a3,0x10000
   10074:	00d7f663          	bgeu	a5,a3,10080 <fast_rsqrt.part.0+0x44>
   10078:	00470713          	addi	a4,a4,4
   1007c:	00479793          	slli	a5,a5,0x4
   10080:	400006b7          	lui	a3,0x40000
   10084:	26d7f063          	bgeu	a5,a3,102e4 <fast_rsqrt.part.0+0x2a8>
   10088:	00279693          	slli	a3,a5,0x2
   1008c:	00270713          	addi	a4,a4,2
   10090:	0006c463          	bltz	a3,10098 <fast_rsqrt.part.0+0x5c>
   10094:	00170713          	addi	a4,a4,1
   10098:	01f00693          	li	a3,31
   1009c:	40e686b3          	sub	a3,a3,a4
   100a0:	000117b7          	lui	a5,0x11
   100a4:	00269593          	slli	a1,a3,0x2
   100a8:	a3078793          	addi	a5,a5,-1488 # 10a30 <rsqrt_table>
   100ac:	00100613          	li	a2,1
   100b0:	00b785b3          	add	a1,a5,a1
   100b4:	00d61633          	sll	a2,a2,a3
   100b8:	0005a503          	lw	a0,0(a1)
   100bc:	0e667c63          	bgeu	a2,t1,101b4 <fast_rsqrt.part.0+0x178>
   100c0:	02000613          	li	a2,32
   100c4:	40e60733          	sub	a4,a2,a4
   100c8:	00271713          	slli	a4,a4,0x2
   100cc:	00e787b3          	add	a5,a5,a4
   100d0:	0007af03          	lw	t5,0(a5)
   100d4:	fe068613          	addi	a2,a3,-32 # 3fffffe0 <__stack_top+0x3ffee510>
   100d8:	41e50f33          	sub	t5,a0,t5
   100dc:	24064a63          	bltz	a2,10330 <fast_rsqrt.part.0+0x2f4>
   100e0:	00100713          	li	a4,1
   100e4:	00c71733          	sll	a4,a4,a2
   100e8:	00000793          	li	a5,0
   100ec:	40f307b3          	sub	a5,t1,a5
   100f0:	00f335b3          	sltu	a1,t1,a5
   100f4:	40e00733          	neg	a4,a4
   100f8:	40b70733          	sub	a4,a4,a1
   100fc:	01071713          	slli	a4,a4,0x10
   10100:	0107d593          	srli	a1,a5,0x10
   10104:	00e5e733          	or	a4,a1,a4
   10108:	01079793          	slli	a5,a5,0x10
   1010c:	00c75833          	srl	a6,a4,a2
   10110:	00065e63          	bgez	a2,1012c <fast_rsqrt.part.0+0xf0>
   10114:	01f00613          	li	a2,31
   10118:	00171713          	slli	a4,a4,0x1
   1011c:	40d60633          	sub	a2,a2,a3
   10120:	00d7d833          	srl	a6,a5,a3
   10124:	00c717b3          	sll	a5,a4,a2
   10128:	0107e833          	or	a6,a5,a6
   1012c:	00000593          	li	a1,0
   10130:	00000613          	li	a2,0
   10134:	00000793          	li	a5,0
   10138:	00100e13          	li	t3,1
   1013c:	001f5293          	srli	t0,t5,0x1
   10140:	01f00f93          	li	t6,31
   10144:	02000893          	li	a7,32
   10148:	0280006f          	j	10170 <fast_rsqrt.part.0+0x134>
   1014c:	00000713          	li	a4,0
   10150:	00df16b3          	sll	a3,t5,a3
   10154:	00e58733          	add	a4,a1,a4
   10158:	00b73eb3          	sltu	t4,a4,a1
   1015c:	00d60633          	add	a2,a2,a3
   10160:	00070593          	mv	a1,a4
   10164:	00ce8633          	add	a2,t4,a2
   10168:	00178793          	addi	a5,a5,1
   1016c:	03178c63          	beq	a5,a7,101a4 <fast_rsqrt.part.0+0x168>
   10170:	00fe1733          	sll	a4,t3,a5
   10174:	01077733          	and	a4,a4,a6
   10178:	fe078693          	addi	a3,a5,-32
   1017c:	fe0706e3          	beqz	a4,10168 <fast_rsqrt.part.0+0x12c>
   10180:	40ff8733          	sub	a4,t6,a5
   10184:	fc06d4e3          	bgez	a3,1014c <fast_rsqrt.part.0+0x110>
   10188:	00e2d6b3          	srl	a3,t0,a4
   1018c:	00ff1733          	sll	a4,t5,a5
   10190:	fc5ff06f          	j	10154 <fast_rsqrt.part.0+0x118>
   10194:	01051793          	slli	a5,a0,0x10
   10198:	01800613          	li	a2,24
   1019c:	01000713          	li	a4,16
   101a0:	ec1ff06f          	j	10060 <fast_rsqrt.part.0+0x24>
   101a4:	01061613          	slli	a2,a2,0x10
   101a8:	0105d593          	srli	a1,a1,0x10
   101ac:	00b665b3          	or	a1,a2,a1
   101b0:	40b50533          	sub	a0,a0,a1
   101b4:	00200e93          	li	t4,2
   101b8:	00100593          	li	a1,1
   101bc:	01f00893          	li	a7,31
   101c0:	02000813          	li	a6,32
   101c4:	00135e13          	srli	t3,t1,0x1
   101c8:	00030f37          	lui	t5,0x30
   101cc:	00000293          	li	t0,0
   101d0:	00000793          	li	a5,0
   101d4:	fe078613          	addi	a2,a5,-32
   101d8:	00f596b3          	sll	a3,a1,a5
   101dc:	00f51733          	sll	a4,a0,a5
   101e0:	41f65613          	srai	a2,a2,0x1f
   101e4:	00a6f6b3          	and	a3,a3,a0
   101e8:	00c77733          	and	a4,a4,a2
   101ec:	00178793          	addi	a5,a5,1
   101f0:	00068463          	beqz	a3,101f8 <fast_rsqrt.part.0+0x1bc>
   101f4:	00e282b3          	add	t0,t0,a4
   101f8:	fd079ee3          	bne	a5,a6,101d4 <fast_rsqrt.part.0+0x198>
   101fc:	00000613          	li	a2,0
   10200:	00000f93          	li	t6,0
   10204:	00000793          	li	a5,0
   10208:	0280006f          	j	10230 <fast_rsqrt.part.0+0x1f4>
   1020c:	00000713          	li	a4,0
   10210:	00d316b3          	sll	a3,t1,a3
   10214:	00e60733          	add	a4,a2,a4
   10218:	00c733b3          	sltu	t2,a4,a2
   1021c:	00df8fb3          	add	t6,t6,a3
   10220:	00070613          	mv	a2,a4
   10224:	01f38fb3          	add	t6,t2,t6
   10228:	00178793          	addi	a5,a5,1
   1022c:	03078463          	beq	a5,a6,10254 <fast_rsqrt.part.0+0x218>
   10230:	00f59733          	sll	a4,a1,a5
   10234:	00577733          	and	a4,a4,t0
   10238:	fe078693          	addi	a3,a5,-32
   1023c:	fe0706e3          	beqz	a4,10228 <fast_rsqrt.part.0+0x1ec>
   10240:	40f88733          	sub	a4,a7,a5
   10244:	fc06d4e3          	bgez	a3,1020c <fast_rsqrt.part.0+0x1d0>
   10248:	00ee56b3          	srl	a3,t3,a4
   1024c:	00f31733          	sll	a4,t1,a5
   10250:	fc5ff06f          	j	10214 <fast_rsqrt.part.0+0x1d8>
   10254:	010f9f93          	slli	t6,t6,0x10
   10258:	01065613          	srli	a2,a2,0x10
   1025c:	00cfe633          	or	a2,t6,a2
   10260:	40cf0633          	sub	a2,t5,a2
   10264:	00000293          	li	t0,0
   10268:	00000f93          	li	t6,0
   1026c:	00000793          	li	a5,0
   10270:	00155413          	srli	s0,a0,0x1
   10274:	0280006f          	j	1029c <fast_rsqrt.part.0+0x260>
   10278:	00000713          	li	a4,0
   1027c:	00d516b3          	sll	a3,a0,a3
   10280:	00e28733          	add	a4,t0,a4
   10284:	005733b3          	sltu	t2,a4,t0
   10288:	00df8fb3          	add	t6,t6,a3
   1028c:	00070293          	mv	t0,a4
   10290:	01f38fb3          	add	t6,t2,t6
   10294:	00178793          	addi	a5,a5,1
   10298:	03078463          	beq	a5,a6,102c0 <fast_rsqrt.part.0+0x284>
   1029c:	00f59733          	sll	a4,a1,a5
   102a0:	00c77733          	and	a4,a4,a2
   102a4:	fe078693          	addi	a3,a5,-32
   102a8:	fe0706e3          	beqz	a4,10294 <fast_rsqrt.part.0+0x258>
   102ac:	40f88733          	sub	a4,a7,a5
   102b0:	fc06d4e3          	bgez	a3,10278 <fast_rsqrt.part.0+0x23c>
   102b4:	00e456b3          	srl	a3,s0,a4
   102b8:	00f51733          	sll	a4,a0,a5
   102bc:	fc5ff06f          	j	10280 <fast_rsqrt.part.0+0x244>
   102c0:	00ff9f93          	slli	t6,t6,0xf
   102c4:	0112d293          	srli	t0,t0,0x11
   102c8:	005fe533          	or	a0,t6,t0
   102cc:	00be8663          	beq	t4,a1,102d8 <fast_rsqrt.part.0+0x29c>
   102d0:	00100e93          	li	t4,1
   102d4:	ef9ff06f          	j	101cc <fast_rsqrt.part.0+0x190>
   102d8:	00c12403          	lw	s0,12(sp)
   102dc:	01010113          	addi	sp,sp,16
   102e0:	00008067          	ret
   102e4:	da07d8e3          	bgez	a5,10094 <fast_rsqrt.part.0+0x58>
   102e8:	01f00813          	li	a6,31
   102ec:	40e806b3          	sub	a3,a6,a4
   102f0:	000117b7          	lui	a5,0x11
   102f4:	00269593          	slli	a1,a3,0x2
   102f8:	a3078793          	addi	a5,a5,-1488 # 10a30 <rsqrt_table>
   102fc:	00100613          	li	a2,1
   10300:	00b785b3          	add	a1,a5,a1
   10304:	00d61633          	sll	a2,a2,a3
   10308:	0005a503          	lw	a0,0(a1)
   1030c:	ea6674e3          	bgeu	a2,t1,101b4 <fast_rsqrt.part.0+0x178>
   10310:	db0698e3          	bne	a3,a6,100c0 <fast_rsqrt.part.0+0x84>
   10314:	00050f13          	mv	t5,a0
   10318:	800007b7          	lui	a5,0x80000
   1031c:	00000713          	li	a4,0
   10320:	fff00613          	li	a2,-1
   10324:	dc9ff06f          	j	100ec <fast_rsqrt.part.0+0xb0>
   10328:	00000513          	li	a0,0
   1032c:	e89ff06f          	j	101b4 <fast_rsqrt.part.0+0x178>
   10330:	00100793          	li	a5,1
   10334:	00d797b3          	sll	a5,a5,a3
   10338:	00000713          	li	a4,0
   1033c:	db1ff06f          	j	100ec <fast_rsqrt.part.0+0xb0>

00010340 <print_dec>:
   10340:	fe010113          	addi	sp,sp,-32
   10344:	00a00793          	li	a5,10
   10348:	00f10fa3          	sb	a5,31(sp)
   1034c:	02051a63          	bnez	a0,10380 <print_dec+0x40>
   10350:	03000793          	li	a5,48
   10354:	00f10f23          	sb	a5,30(sp)
   10358:	01e10313          	addi	t1,sp,30
   1035c:	02010793          	addi	a5,sp,32
   10360:	406787b3          	sub	a5,a5,t1
   10364:	04000893          	li	a7,64
   10368:	00100513          	li	a0,1
   1036c:	006005b3          	add	a1,zero,t1
   10370:	00078613          	mv	a2,a5
   10374:	00000073          	ecall
   10378:	02010113          	addi	sp,sp,32
   1037c:	00008067          	ret
   10380:	01e10313          	addi	t1,sp,30
   10384:	00900593          	li	a1,9
   10388:	fff00613          	li	a2,-1
   1038c:	00100893          	li	a7,1
   10390:	01f00713          	li	a4,31
   10394:	00000793          	li	a5,0
   10398:	00e556b3          	srl	a3,a0,a4
   1039c:	00179793          	slli	a5,a5,0x1
   103a0:	0016f693          	andi	a3,a3,1
   103a4:	00f6e7b3          	or	a5,a3,a5
   103a8:	fff70713          	addi	a4,a4,-1
   103ac:	00f5f463          	bgeu	a1,a5,103b4 <print_dec+0x74>
   103b0:	ff678793          	addi	a5,a5,-10 # 7ffffff6 <__stack_top+0x7ffee526>
   103b4:	fec712e3          	bne	a4,a2,10398 <print_dec+0x58>
   103b8:	03078793          	addi	a5,a5,48
   103bc:	00f30023          	sb	a5,0(t1)
   103c0:	fff30e13          	addi	t3,t1,-1
   103c4:	00000813          	li	a6,0
   103c8:	01f00713          	li	a4,31
   103cc:	00000793          	li	a5,0
   103d0:	00e556b3          	srl	a3,a0,a4
   103d4:	0016f693          	andi	a3,a3,1
   103d8:	00179793          	slli	a5,a5,0x1
   103dc:	00f6e7b3          	or	a5,a3,a5
   103e0:	00e896b3          	sll	a3,a7,a4
   103e4:	fff70713          	addi	a4,a4,-1
   103e8:	00f5f663          	bgeu	a1,a5,103f4 <print_dec+0xb4>
   103ec:	ff678793          	addi	a5,a5,-10
   103f0:	00d86833          	or	a6,a6,a3
   103f4:	fcc71ee3          	bne	a4,a2,103d0 <print_dec+0x90>
   103f8:	f60802e3          	beqz	a6,1035c <print_dec+0x1c>
   103fc:	000e0313          	mv	t1,t3
   10400:	00080513          	mv	a0,a6
   10404:	f8dff06f          	j	10390 <print_dec+0x50>

00010408 <memcpy>:
   10408:	fff60813          	addi	a6,a2,-1
   1040c:	08060e63          	beqz	a2,104a8 <memcpy+0xa0>
   10410:	00600793          	li	a5,6
   10414:	00158713          	addi	a4,a1,1
   10418:	0707fa63          	bgeu	a5,a6,1048c <memcpy+0x84>
   1041c:	00b567b3          	or	a5,a0,a1
   10420:	0037f793          	andi	a5,a5,3
   10424:	00158713          	addi	a4,a1,1
   10428:	06079263          	bnez	a5,1048c <memcpy+0x84>
   1042c:	40e507b3          	sub	a5,a0,a4
   10430:	0037b793          	sltiu	a5,a5,3
   10434:	04079c63          	bnez	a5,1048c <memcpy+0x84>
   10438:	ffc67893          	andi	a7,a2,-4
   1043c:	011586b3          	add	a3,a1,a7
   10440:	00050793          	mv	a5,a0
   10444:	0005a703          	lw	a4,0(a1)
   10448:	00458593          	addi	a1,a1,4
   1044c:	00478793          	addi	a5,a5,4
   10450:	fee7ae23          	sw	a4,-4(a5)
   10454:	feb698e3          	bne	a3,a1,10444 <memcpy+0x3c>
   10458:	41180833          	sub	a6,a6,a7
   1045c:	011507b3          	add	a5,a0,a7
   10460:	05160463          	beq	a2,a7,104a8 <memcpy+0xa0>
   10464:	0006c703          	lbu	a4,0(a3)
   10468:	00e78023          	sb	a4,0(a5)
   1046c:	02080e63          	beqz	a6,104a8 <memcpy+0xa0>
   10470:	0016c603          	lbu	a2,1(a3)
   10474:	00100713          	li	a4,1
   10478:	00c780a3          	sb	a2,1(a5)
   1047c:	02e80663          	beq	a6,a4,104a8 <memcpy+0xa0>
   10480:	0026c703          	lbu	a4,2(a3)
   10484:	00e78123          	sb	a4,2(a5)
   10488:	00008067          	ret
   1048c:	00c50633          	add	a2,a0,a2
   10490:	00050793          	mv	a5,a0
   10494:	fff74683          	lbu	a3,-1(a4)
   10498:	00178793          	addi	a5,a5,1
   1049c:	00170713          	addi	a4,a4,1
   104a0:	fed78fa3          	sb	a3,-1(a5)
   104a4:	fec798e3          	bne	a5,a2,10494 <memcpy+0x8c>
   104a8:	00008067          	ret

000104ac <__mulsi3>:
   104ac:	00050713          	mv	a4,a0
   104b0:	00000513          	li	a0,0
   104b4:	02058263          	beqz	a1,104d8 <__mulsi3+0x2c>
   104b8:	0015f793          	andi	a5,a1,1
   104bc:	40f007b3          	neg	a5,a5
   104c0:	00e7f7b3          	and	a5,a5,a4
   104c4:	0015d593          	srli	a1,a1,0x1
   104c8:	00f50533          	add	a0,a0,a5
   104cc:	00171713          	slli	a4,a4,0x1
   104d0:	fe0594e3          	bnez	a1,104b8 <__mulsi3+0xc>
   104d4:	00008067          	ret
   104d8:	00008067          	ret

000104dc <fast_rsqrt>:
   104dc:	00050863          	beqz	a0,104ec <fast_rsqrt+0x10>
   104e0:	00100713          	li	a4,1
   104e4:	00e50863          	beq	a0,a4,104f4 <fast_rsqrt+0x18>
   104e8:	b55ff06f          	j	1003c <fast_rsqrt.part.0>
   104ec:	fff00513          	li	a0,-1
   104f0:	00008067          	ret
   104f4:	00010537          	lui	a0,0x10
   104f8:	00008067          	ret

000104fc <main>:
   104fc:	000117b7          	lui	a5,0x11
   10500:	a3078793          	addi	a5,a5,-1488 # 10a30 <rsqrt_table>
   10504:	0807a803          	lw	a6,128(a5)
   10508:	0847a503          	lw	a0,132(a5)
   1050c:	0887a583          	lw	a1,136(a5)
   10510:	08c7a603          	lw	a2,140(a5)
   10514:	0907a683          	lw	a3,144(a5)
   10518:	0947a703          	lw	a4,148(a5)
   1051c:	0987a783          	lw	a5,152(a5)
   10520:	f8010113          	addi	sp,sp,-128
   10524:	06812c23          	sw	s0,120(sp)
   10528:	06912a23          	sw	s1,116(sp)
   1052c:	07212823          	sw	s2,112(sp)
   10530:	07312623          	sw	s3,108(sp)
   10534:	07412423          	sw	s4,104(sp)
   10538:	06112e23          	sw	ra,124(sp)
   1053c:	07512223          	sw	s5,100(sp)
   10540:	07612023          	sw	s6,96(sp)
   10544:	03012223          	sw	a6,36(sp)
   10548:	02a12423          	sw	a0,40(sp)
   1054c:	02b12623          	sw	a1,44(sp)
   10550:	02c12823          	sw	a2,48(sp)
   10554:	02d12a23          	sw	a3,52(sp)
   10558:	02e12c23          	sw	a4,56(sp)
   1055c:	02f12e23          	sw	a5,60(sp)
   10560:	02410413          	addi	s0,sp,36
   10564:	04010a13          	addi	s4,sp,64
   10568:	fff00493          	li	s1,-1
   1056c:	00100993          	li	s3,1
   10570:	00900913          	li	s2,9
   10574:	203d27b7          	lui	a5,0x203d2
   10578:	07878793          	addi	a5,a5,120 # 203d2078 <__stack_top+0x203c05a8>
   1057c:	04f12023          	sw	a5,64(sp)
   10580:	00042b03          	lw	s6,0(s0)
   10584:	04010223          	sb	zero,68(sp)
   10588:	00400793          	li	a5,4
   1058c:	04000893          	li	a7,64
   10590:	00100513          	li	a0,1
   10594:	014005b3          	add	a1,zero,s4
   10598:	00078613          	mv	a2,a5
   1059c:	00000073          	ecall
   105a0:	000b0513          	mv	a0,s6
   105a4:	d9dff0ef          	jal	10340 <print_dec>
   105a8:	fff00a93          	li	s5,-1
   105ac:	000b0a63          	beqz	s6,105c0 <main+0xc4>
   105b0:	393b0463          	beq	s6,s3,10938 <main+0x43c>
   105b4:	000b0513          	mv	a0,s6
   105b8:	a85ff0ef          	jal	1003c <fast_rsqrt.part.0>
   105bc:	00050a93          	mv	s5,a0
   105c0:	20792737          	lui	a4,0x20792
   105c4:	000027b7          	lui	a5,0x2
   105c8:	02070713          	addi	a4,a4,32 # 20792020 <__stack_top+0x20780550>
   105cc:	03d78793          	addi	a5,a5,61 # 203d <_start-0xdfc3>
   105d0:	04f11223          	sh	a5,68(sp)
   105d4:	04010323          	sb	zero,70(sp)
   105d8:	04e12023          	sw	a4,64(sp)
   105dc:	00600793          	li	a5,6
   105e0:	04000893          	li	a7,64
   105e4:	00100513          	li	a0,1
   105e8:	014005b3          	add	a1,zero,s4
   105ec:	00078613          	mv	a2,a5
   105f0:	00000073          	ecall
   105f4:	000a8513          	mv	a0,s5
   105f8:	d49ff0ef          	jal	10340 <print_dec>
   105fc:	169a8e63          	beq	s5,s1,10778 <main+0x27c>
   10600:	000117b7          	lui	a5,0x11
   10604:	a0078793          	addi	a5,a5,-1536 # 10a00 <__lshrdi3+0x4c>
   10608:	0007a583          	lw	a1,0(a5)
   1060c:	0047a603          	lw	a2,4(a5)
   10610:	0087a683          	lw	a3,8(a5)
   10614:	00c7d703          	lhu	a4,12(a5)
   10618:	00e7c783          	lbu	a5,14(a5)
   1061c:	04b12023          	sw	a1,64(sp)
   10620:	04c12223          	sw	a2,68(sp)
   10624:	04f10723          	sb	a5,78(sp)
   10628:	04d12423          	sw	a3,72(sp)
   1062c:	04e11623          	sh	a4,76(sp)
   10630:	00e00793          	li	a5,14
   10634:	04000893          	li	a7,64
   10638:	00100513          	li	a0,1
   1063c:	014005b3          	add	a1,zero,s4
   10640:	00078613          	mv	a2,a5
   10644:	00000073          	ecall
   10648:	010a9e13          	slli	t3,s5,0x10
   1064c:	010e5e13          	srli	t3,t3,0x10
   10650:	000f4837          	lui	a6,0xf4
   10654:	010ad613          	srli	a2,s5,0x10
   10658:	001e5f13          	srli	t5,t3,0x1
   1065c:	24080813          	addi	a6,a6,576 # f4240 <__stack_top+0xe2770>
   10660:	00000513          	li	a0,0
   10664:	00000593          	li	a1,0
   10668:	00000793          	li	a5,0
   1066c:	01f00e93          	li	t4,31
   10670:	02000893          	li	a7,32
   10674:	0280006f          	j	1069c <main+0x1a0>
   10678:	00000713          	li	a4,0
   1067c:	00de16b3          	sll	a3,t3,a3
   10680:	00e50733          	add	a4,a0,a4
   10684:	00a73333          	sltu	t1,a4,a0
   10688:	00d585b3          	add	a1,a1,a3
   1068c:	00070513          	mv	a0,a4
   10690:	00b305b3          	add	a1,t1,a1
   10694:	00178793          	addi	a5,a5,1
   10698:	03178463          	beq	a5,a7,106c0 <main+0x1c4>
   1069c:	00f99733          	sll	a4,s3,a5
   106a0:	01077733          	and	a4,a4,a6
   106a4:	fe078693          	addi	a3,a5,-32
   106a8:	fe0706e3          	beqz	a4,10694 <main+0x198>
   106ac:	40fe8733          	sub	a4,t4,a5
   106b0:	fc06d4e3          	bgez	a3,10678 <main+0x17c>
   106b4:	00ef56b3          	srl	a3,t5,a4
   106b8:	00fe1733          	sll	a4,t3,a5
   106bc:	fc5ff06f          	j	10680 <main+0x184>
   106c0:	00008837          	lui	a6,0x8
   106c4:	01050833          	add	a6,a0,a6
   106c8:	00a837b3          	sltu	a5,a6,a0
   106cc:	00b787b3          	add	a5,a5,a1
   106d0:	01079713          	slli	a4,a5,0x10
   106d4:	01085813          	srli	a6,a6,0x10
   106d8:	0107d793          	srli	a5,a5,0x10
   106dc:	01076833          	or	a6,a4,a6
   106e0:	00079863          	bnez	a5,106f0 <main+0x1f4>
   106e4:	000f47b7          	lui	a5,0xf4
   106e8:	23f78793          	addi	a5,a5,575 # f423f <__stack_top+0xe276f>
   106ec:	1307f063          	bgeu	a5,a6,1080c <main+0x310>
   106f0:	00160613          	addi	a2,a2,1
   106f4:	00000813          	li	a6,0
   106f8:	00000513          	li	a0,0
   106fc:	01f00713          	li	a4,31
   10700:	00000793          	li	a5,0
   10704:	00e656b3          	srl	a3,a2,a4
   10708:	00179793          	slli	a5,a5,0x1
   1070c:	0016f693          	andi	a3,a3,1
   10710:	00f6e7b3          	or	a5,a3,a5
   10714:	fff70713          	addi	a4,a4,-1
   10718:	00f97463          	bgeu	s2,a5,10720 <main+0x224>
   1071c:	ff678793          	addi	a5,a5,-10
   10720:	fe9712e3          	bne	a4,s1,10704 <main+0x208>
   10724:	00150313          	addi	t1,a0,1 # 10001 <_start+0x1>
   10728:	03078793          	addi	a5,a5,48
   1072c:	006a0733          	add	a4,s4,t1
   10730:	fef70fa3          	sb	a5,-1(a4)
   10734:	00000593          	li	a1,0
   10738:	01f00713          	li	a4,31
   1073c:	00000793          	li	a5,0
   10740:	00e656b3          	srl	a3,a2,a4
   10744:	0016f693          	andi	a3,a3,1
   10748:	00179793          	slli	a5,a5,0x1
   1074c:	00f6e7b3          	or	a5,a3,a5
   10750:	00e996b3          	sll	a3,s3,a4
   10754:	fff70713          	addi	a4,a4,-1
   10758:	00f97663          	bgeu	s2,a5,10764 <main+0x268>
   1075c:	ff678793          	addi	a5,a5,-10
   10760:	00d5e5b3          	or	a1,a1,a3
   10764:	fc971ee3          	bne	a4,s1,10740 <main+0x244>
   10768:	1a058463          	beqz	a1,10910 <main+0x414>
   1076c:	00030513          	mv	a0,t1
   10770:	00058613          	mv	a2,a1
   10774:	f89ff06f          	j	106fc <main+0x200>
   10778:	000117b7          	lui	a5,0x11
   1077c:	a1078793          	addi	a5,a5,-1520 # 10a10 <__lshrdi3+0x5c>
   10780:	0007a883          	lw	a7,0(a5)
   10784:	0047a803          	lw	a6,4(a5)
   10788:	0087a503          	lw	a0,8(a5)
   1078c:	00c7a583          	lw	a1,12(a5)
   10790:	0107a603          	lw	a2,16(a5)
   10794:	0147a683          	lw	a3,20(a5)
   10798:	0187a703          	lw	a4,24(a5)
   1079c:	01c7c783          	lbu	a5,28(a5)
   107a0:	05112023          	sw	a7,64(sp)
   107a4:	05012223          	sw	a6,68(sp)
   107a8:	04f10e23          	sb	a5,92(sp)
   107ac:	04a12423          	sw	a0,72(sp)
   107b0:	04b12623          	sw	a1,76(sp)
   107b4:	04c12823          	sw	a2,80(sp)
   107b8:	04d12a23          	sw	a3,84(sp)
   107bc:	04e12c23          	sw	a4,88(sp)
   107c0:	01c00793          	li	a5,28
   107c4:	04000893          	li	a7,64
   107c8:	00100513          	li	a0,1
   107cc:	014005b3          	add	a1,zero,s4
   107d0:	00078613          	mv	a2,a5
   107d4:	00000073          	ecall
   107d8:	00440413          	addi	s0,s0,4
   107dc:	d88a1ce3          	bne	s4,s0,10574 <main+0x78>
   107e0:	07c12083          	lw	ra,124(sp)
   107e4:	07812403          	lw	s0,120(sp)
   107e8:	07412483          	lw	s1,116(sp)
   107ec:	07012903          	lw	s2,112(sp)
   107f0:	06c12983          	lw	s3,108(sp)
   107f4:	06812a03          	lw	s4,104(sp)
   107f8:	06412a83          	lw	s5,100(sp)
   107fc:	06012b03          	lw	s6,96(sp)
   10800:	00000513          	li	a0,0
   10804:	08010113          	addi	sp,sp,128
   10808:	00008067          	ret
   1080c:	ee0616e3          	bnez	a2,106f8 <main+0x1fc>
   10810:	03000793          	li	a5,48
   10814:	00f10623          	sb	a5,12(sp)
   10818:	00100313          	li	t1,1
   1081c:	00c10e13          	addi	t3,sp,12
   10820:	04000893          	li	a7,64
   10824:	00100513          	li	a0,1
   10828:	01c005b3          	add	a1,zero,t3
   1082c:	00030613          	mv	a2,t1
   10830:	00000073          	ecall
   10834:	02e00793          	li	a5,46
   10838:	00f10623          	sb	a5,12(sp)
   1083c:	04000893          	li	a7,64
   10840:	00100513          	li	a0,1
   10844:	01c005b3          	add	a1,zero,t3
   10848:	00098613          	mv	a2,s3
   1084c:	00000073          	ecall
   10850:	000a0593          	mv	a1,s4
   10854:	03a10513          	addi	a0,sp,58
   10858:	01f00713          	li	a4,31
   1085c:	00000793          	li	a5,0
   10860:	00e856b3          	srl	a3,a6,a4
   10864:	00179793          	slli	a5,a5,0x1
   10868:	0016f693          	andi	a3,a3,1
   1086c:	00f6e7b3          	or	a5,a3,a5
   10870:	fff70713          	addi	a4,a4,-1
   10874:	00f97463          	bgeu	s2,a5,1087c <main+0x380>
   10878:	ff678793          	addi	a5,a5,-10
   1087c:	fe9712e3          	bne	a4,s1,10860 <main+0x364>
   10880:	03078793          	addi	a5,a5,48
   10884:	00f582a3          	sb	a5,5(a1)
   10888:	00000613          	li	a2,0
   1088c:	01f00713          	li	a4,31
   10890:	00000793          	li	a5,0
   10894:	00e856b3          	srl	a3,a6,a4
   10898:	0016f693          	andi	a3,a3,1
   1089c:	00179793          	slli	a5,a5,0x1
   108a0:	00f6e7b3          	or	a5,a3,a5
   108a4:	00e996b3          	sll	a3,s3,a4
   108a8:	fff70713          	addi	a4,a4,-1
   108ac:	00f97663          	bgeu	s2,a5,108b8 <main+0x3bc>
   108b0:	ff678793          	addi	a5,a5,-10
   108b4:	00d66633          	or	a2,a2,a3
   108b8:	fc971ee3          	bne	a4,s1,10894 <main+0x398>
   108bc:	fff58593          	addi	a1,a1,-1
   108c0:	00a58663          	beq	a1,a0,108cc <main+0x3d0>
   108c4:	00060813          	mv	a6,a2
   108c8:	f91ff06f          	j	10858 <main+0x35c>
   108cc:	00600793          	li	a5,6
   108d0:	04000893          	li	a7,64
   108d4:	00100513          	li	a0,1
   108d8:	014005b3          	add	a1,zero,s4
   108dc:	00078613          	mv	a2,a5
   108e0:	00000073          	ecall
   108e4:	000017b7          	lui	a5,0x1
   108e8:	a2978793          	addi	a5,a5,-1495 # a29 <_start-0xf5d7>
   108ec:	04f11023          	sh	a5,64(sp)
   108f0:	04010123          	sb	zero,66(sp)
   108f4:	00200793          	li	a5,2
   108f8:	04000893          	li	a7,64
   108fc:	00100513          	li	a0,1
   10900:	014005b3          	add	a1,zero,s4
   10904:	00078613          	mv	a2,a5
   10908:	00000073          	ecall
   1090c:	ecdff06f          	j	107d8 <main+0x2dc>
   10910:	00c10e13          	addi	t3,sp,12
   10914:	00aa07b3          	add	a5,s4,a0
   10918:	000e0713          	mv	a4,t3
   1091c:	0007c603          	lbu	a2,0(a5)
   10920:	00078693          	mv	a3,a5
   10924:	00170713          	addi	a4,a4,1
   10928:	fec70fa3          	sb	a2,-1(a4)
   1092c:	fff78793          	addi	a5,a5,-1
   10930:	feda16e3          	bne	s4,a3,1091c <main+0x420>
   10934:	eedff06f          	j	10820 <main+0x324>
   10938:	00010ab7          	lui	s5,0x10
   1093c:	c85ff06f          	j	105c0 <main+0xc4>

00010940 <get_cycles>:
   10940:	c80025f3          	rdcycleh	a1
   10944:	c0002573          	rdcycle	a0
   10948:	c8002673          	rdcycleh	a2
   1094c:	fec59ae3          	bne	a1,a2,10940 <get_cycles>
   10950:	00008067          	ret

00010954 <get_instret>:
   10954:	c82025f3          	rdinstreth	a1
   10958:	c0202573          	rdinstret	a0
   1095c:	c8202673          	rdinstreth	a2
   10960:	fec59ae3          	bne	a1,a2,10954 <get_instret>
   10964:	00008067          	ret

00010968 <__ashldi3>:
   10968:	03f00793          	li	a5,63
   1096c:	02c7e063          	bltu	a5,a2,1098c <__ashldi3+0x24>
   10970:	02060263          	beqz	a2,10994 <__ashldi3+0x2c>
   10974:	01f00793          	li	a5,31
   10978:	02c7d063          	bge	a5,a2,10998 <__ashldi3+0x30>
   1097c:	fe060613          	addi	a2,a2,-32
   10980:	00c515b3          	sll	a1,a0,a2
   10984:	00000513          	li	a0,0
   10988:	00008067          	ret
   1098c:	00000513          	li	a0,0
   10990:	00000593          	li	a1,0
   10994:	00008067          	ret
   10998:	02000793          	li	a5,32
   1099c:	40c787b3          	sub	a5,a5,a2
   109a0:	00f557b3          	srl	a5,a0,a5
   109a4:	00c595b3          	sll	a1,a1,a2
   109a8:	00b7e5b3          	or	a1,a5,a1
   109ac:	00c51533          	sll	a0,a0,a2
   109b0:	00008067          	ret

000109b4 <__lshrdi3>:
   109b4:	03f00793          	li	a5,63
   109b8:	02c7e063          	bltu	a5,a2,109d8 <__lshrdi3+0x24>
   109bc:	02060263          	beqz	a2,109e0 <__lshrdi3+0x2c>
   109c0:	01f00793          	li	a5,31
   109c4:	02c7d063          	bge	a5,a2,109e4 <__lshrdi3+0x30>
   109c8:	fe060613          	addi	a2,a2,-32
   109cc:	00c5d533          	srl	a0,a1,a2
   109d0:	00000593          	li	a1,0
   109d4:	00008067          	ret
   109d8:	00000513          	li	a0,0
   109dc:	00000593          	li	a1,0
   109e0:	00008067          	ret
   109e4:	02000793          	li	a5,32
   109e8:	40c787b3          	sub	a5,a5,a2
   109ec:	00f597b3          	sll	a5,a1,a5
   109f0:	00c55533          	srl	a0,a0,a2
   109f4:	00a7e533          	or	a0,a5,a0
   109f8:	00c5d5b3          	srl	a1,a1,a2
   109fc:	00008067          	ret
   10a00:	2020                	.insn	2, 0x2020
   10a02:	7928                	.insn	2, 0x7928
   10a04:	3535362f          	.insn	4, 0x3535362f
   10a08:	7e203633          	.insn	4, 0x7e203633
   10a0c:	203d                	.insn	2, 0x203d
   10a0e:	0000                	.insn	2, 0x
   10a10:	2020                	.insn	2, 0x2020
   10a12:	4128                	.insn	2, 0x4128
   10a14:	61757463          	bgeu	a0,s7,1101c <__bss_end+0x550>
   10a18:	206c                	.insn	2, 0x206c
   10a1a:	6176                	.insn	2, 0x6176
   10a1c:	756c                	.insn	2, 0x756c
   10a1e:	2065                	.insn	2, 0x2065
   10a20:	203d                	.insn	2, 0x203d
   10a22:	6e69                	.insn	2, 0x6e69
   10a24:	6966                	.insn	2, 0x6966
   10a26:	696e                	.insn	2, 0x696e
   10a28:	7974                	.insn	2, 0x7974
   10a2a:	0a29                	.insn	2, 0x0a29
   10a2c:	0000                	.insn	2, 0x
	...

00010a30 <rsqrt_table>:
   10a30:	0000                	.insn	2, 0x
   10a32:	0001                	.insn	2, 0x0001
   10a34:	b505                	.insn	2, 0xb505
   10a36:	0000                	.insn	2, 0x
   10a38:	8000                	.insn	2, 0x8000
   10a3a:	0000                	.insn	2, 0x
   10a3c:	5a82                	.insn	2, 0x5a82
   10a3e:	0000                	.insn	2, 0x
   10a40:	4000                	.insn	2, 0x4000
   10a42:	0000                	.insn	2, 0x
   10a44:	2d41                	.insn	2, 0x2d41
   10a46:	0000                	.insn	2, 0x
   10a48:	2000                	.insn	2, 0x2000
   10a4a:	0000                	.insn	2, 0x
   10a4c:	16a1                	.insn	2, 0x16a1
   10a4e:	0000                	.insn	2, 0x
   10a50:	1000                	.insn	2, 0x1000
   10a52:	0000                	.insn	2, 0x
   10a54:	0b50                	.insn	2, 0x0b50
   10a56:	0000                	.insn	2, 0x
   10a58:	0800                	.insn	2, 0x0800
   10a5a:	0000                	.insn	2, 0x
   10a5c:	05a8                	.insn	2, 0x05a8
   10a5e:	0000                	.insn	2, 0x
   10a60:	0400                	.insn	2, 0x0400
   10a62:	0000                	.insn	2, 0x
   10a64:	02d4                	.insn	2, 0x02d4
   10a66:	0000                	.insn	2, 0x
   10a68:	0200                	.insn	2, 0x0200
   10a6a:	0000                	.insn	2, 0x
   10a6c:	016a                	.insn	2, 0x016a
   10a6e:	0000                	.insn	2, 0x
   10a70:	0100                	.insn	2, 0x0100
   10a72:	0000                	.insn	2, 0x
   10a74:	00b5                	.insn	2, 0x00b5
   10a76:	0000                	.insn	2, 0x
   10a78:	0080                	.insn	2, 0x0080
   10a7a:	0000                	.insn	2, 0x
   10a7c:	005a                	.insn	2, 0x005a
   10a7e:	0000                	.insn	2, 0x
   10a80:	0040                	.insn	2, 0x0040
   10a82:	0000                	.insn	2, 0x
   10a84:	002d                	.insn	2, 0x002d
   10a86:	0000                	.insn	2, 0x
   10a88:	0020                	.insn	2, 0x0020
   10a8a:	0000                	.insn	2, 0x
   10a8c:	00000017          	auipc	zero,0x0
   10a90:	0010                	.insn	2, 0x0010
   10a92:	0000                	.insn	2, 0x
   10a94:	0000000b          	.insn	4, 0x000b
   10a98:	0008                	.insn	2, 0x0008
   10a9a:	0000                	.insn	2, 0x
   10a9c:	0006                	.insn	2, 0x0006
   10a9e:	0000                	.insn	2, 0x
   10aa0:	0004                	.insn	2, 0x0004
   10aa2:	0000                	.insn	2, 0x
   10aa4:	00000003          	lb	zero,0(zero) # 0 <_start-0x10000>
   10aa8:	0002                	.insn	2, 0x0002
   10aaa:	0000                	.insn	2, 0x
   10aac:	0001                	.insn	2, 0x0001
   10aae:	0000                	.insn	2, 0x
   10ab0:	0001                	.insn	2, 0x0001
   10ab2:	0000                	.insn	2, 0x
   10ab4:	0004                	.insn	2, 0x0004
   10ab6:	0000                	.insn	2, 0x
   10ab8:	0010                	.insn	2, 0x0010
   10aba:	0000                	.insn	2, 0x
   10abc:	0014                	.insn	2, 0x0014
   10abe:	0000                	.insn	2, 0x
   10ac0:	0064                	.insn	2, 0x0064
   10ac2:	0000                	.insn	2, 0x
   10ac4:	0000                	.insn	2, 0x
   10ac6:	0000                	.insn	2, 0x
   10ac8:	ffff                	.insn	2, 0xffff
   10aca:	ffff                	.insn	2, 0xffff
