
test.elf:     file format elf32-littleriscv

Contents of section .text:
 10000 17210000 130101fb 97120000 938232fa  .!............2.
 10010 17130000 1303b3f9 63d86200 23a00200  ........c.b.#...
 10020 93824200 6ff05fff ef00904b 9308d005  ..B.o._....K....
 10030 13050000 73000000 6f000000 130101fd  ....s...o.......
 10040 23261102 23248102 13040103 232ea4fc  #&..#$......#...
 10050 232cb4fc 232ac4fc 8327c4fd 2326f4fe  #,..#*...'..#&..
 10060 832784fd 2324f4fe 6f004002 032784fe  .'..#$..o.@..'..
 10070 93071700 2324f4fe 8327c4fe 93861700  ....#$...'......
 10080 2326d4fe 03470700 2380e700 832744fd  #&...G..#....'D.
 10090 1387f7ff 232ae4fc e39a07fc 8327c4fd  ....#*.......'..
 100a0 13850700 8320c102 03248102 13010103  ..... ...$......
 100b0 67800000 130101fd 23261102 23248102  g.......#&..#$..
 100c0 13040103 232ea4fc 232cb4fc 832784fd  ....#...#,...'..
 100d0 63960700 93070000 6f00c008 232604fe  c.......o...#&..
 100e0 232404fe 9307f001 2322f4fe 6f00c006  #$......#"..o...
 100f0 832784fe 93971700 2324f4fe 832744fe  .'......#$...'D.
 10100 0327c4fd b357f700 93f71700 032784fe  .'...W.......'..
 10110 b367f700 2324f4fe 032784fe 832784fd  .g..#$...'...'..
 10120 6366f702 032784fe 832784fd b307f740  cf...'...'.....@
 10130 2324f4fe 832744fe 13071000 b317f700  #$...'D.........
 10140 0327c4fe b367f700 2326f4fe 832744fe  .'...g..#&...'D.
 10150 9387f7ff 2322f4fe 832744fe e3da07f8  ....#"...'D.....
 10160 8327c4fe 13850700 8320c102 03248102  .'....... ...$..
 10170 13010103 67800000 130101fd 23261102  ....g.......#&..
 10180 23248102 13040103 232ea4fc 232cb4fc  #$......#...#,..
 10190 832784fd 63960700 93070000 6f000007  .'..c.......o...
 101a0 232604fe 9307f001 2324f4fe 6f004005  #&......#$..o.@.
 101b0 8327c4fe 93971700 2326f4fe 832784fe  .'......#&...'..
 101c0 0327c4fd b357f700 93f71700 0327c4fe  .'...W.......'..
 101d0 b367f700 2326f4fe 0327c4fe 832784fd  .g..#&...'...'..
 101e0 636af700 0327c4fe 832784fd b307f740  cj...'...'.....@
 101f0 2326f4fe 832784fe 9387f7ff 2324f4fe  #&...'......#$..
 10200 832784fe e3d607fa 8327c4fe 13850700  .'.......'......
 10210 8320c102 03248102 13010103 67800000  . ...$......g...
 10220 130101fd 23261102 23248102 13040103  ....#&..#$......
 10230 232ea4fc 232cb4fc 232604fe 6f008003  #...#,..#&..o...
 10240 832784fd 93f71700 638a0700 0327c4fe  .'......c....'..
 10250 8327c4fd b307f700 2326f4fe 8327c4fd  .'......#&...'..
 10260 93971700 232ef4fc 832784fd 93d71700  ....#....'......
 10270 232cf4fc 832784fd e39407fc 8327c4fe  #,...'.......'..
 10280 13850700 8320c102 03248102 13010103  ..... ...$......
 10290 67800000 130101fe 232e1100 232c8100  g.......#...#,..
 102a0 13040102 2326a4fe 2324b4fe 832584fe  ....#&..#$...%..
 102b0 0325c4fe eff0dff6 93070500 13850700  .%..............
 102c0 8320c101 03248101 13010102 67800000  . ...$......g...
 102d0 130101fd 23261102 23248102 13040103  ....#&..#$......
 102e0 232ea4fc 232cb4fc 13050000 93050000  #...#,..........
 102f0 2324a4fe 2326b4fe 232204fe 6f00c009  #$..#&..#"..o...
 10300 832544fe 13051000 3315b500 832584fd  .%D.....3....%..
 10310 b375b500 638c0506 8325c4fd 13860500  .u..c....%......
 10320 93060000 832544fe 938505fe 63c80500  .....%D.....c...
 10330 b317b600 13070000 6f00c002 13551600  ........o....U..
 10340 1308f001 832544fe b305b840 b355b500  .....%D....@.U..
 10350 032544fe b397a600 b3e7f500 832544fe  .%D..........%D.
 10360 3317b600 032884fe 8328c4fe 3305e800  3....(...(..3...
 10370 13030500 33330301 b385f800 3308b300  ....33......3...
 10380 93050800 2324a4fe 2326b4fe 832544fe  ....#$..#&...%D.
 10390 93851500 2322b4fe 032544fe 9305f001  ....#"...%D.....
 103a0 e3d0a5f6 032784fe 8327c4fe 13050700  .....'...'......
 103b0 93850700 8320c102 03248102 13010103  ..... ...$......
 103c0 67800000 130101fc 232e1102 232c8102  g.......#...#,..
 103d0 13040104 2326a4fc 930744fd 93873701  ....#&....D...7.
 103e0 2326f4fe 8327c4fe 1307a000 2380e700  #&...'......#...
 103f0 8327c4fe 9387f7ff 2326f4fe 8327c4fc  .'......#&...'..
 10400 639e0706 8327c4fe 13070003 2380e700  c....'......#...
 10410 8327c4fe 9387f7ff 2326f4fe 6f008006  .'......#&..o...
 10420 8327c4fc 93f7f700 2324f4fe 032784fe  .'......#$...'..
 10430 93079000 63cce700 832784fe 93f7f70f  ....c....'......
 10440 93870703 93f7f70f 6f004001 832784fe  ........o.@..'..
 10450 93f7f70f 93877705 93f7f70f 0327c4fe  ......w......'..
 10460 2300f700 8327c4fe 9387f7ff 2326f4fe  #....'......#&..
 10470 8327c4fc 93d74700 2326f4fc 8327c4fc  .'....G.#&...'..
 10480 e39007fa 8327c4fe 93871700 2326f4fe  .....'......#&..
 10490 930744fd 93874701 0327c4fe 3387e740  ..D...G..'..3..@
 104a0 8327c4fe 93080004 13051000 b305f000  .'..............
 104b0 13060700 73000000 13000000 8320c103  ....s........ ..
 104c0 03248103 13010104 67800000 130101fc  .$......g.......
 104d0 232e1102 232c8102 13040104 2326a4fc  #...#,......#&..
 104e0 930784fd 93873701 2326f4fe 8327c4fe  ......7.#&...'..
 104f0 1307a000 2380e700 8327c4fe 9387f7ff  ....#....'......
 10500 2326f4fe 8327c4fc 63900706 8327c4fe  #&...'..c....'..
 10510 13070003 2380e700 8327c4fe 9387f7ff  ....#....'......
 10520 2326f4fe 6f00c004 9305a000 0325c4fc  #&..o........%..
 10530 eff09fc4 93070500 93f7f70f 93870703  ................
 10540 13f7f70f 8327c4fe 2380e700 8327c4fe  .....'..#....'..
 10550 9387f7ff 2326f4fe 9305a000 0325c4fc  ....#&.......%..
 10560 eff05fb5 2326a4fc 8327c4fc e39e07fa  .._.#&...'......
 10570 8327c4fe 93871700 2326f4fe 930784fd  .'......#&......
 10580 93874701 0327c4fe 3387e740 8327c4fe  ..G..'..3..@.'..
 10590 93080004 13051000 b305f000 13060700  ................
 105a0 73000000 13000000 8320c103 03248103  s........ ...$..
 105b0 13010104 67800000 130101fa 232e1104  ....g.......#...
 105c0 232c8104 13040106 2326a4fa 232604fe  #,......#&..#&..
 105d0 8327c4fa 63920702 8327c4fe 13871700  .'..c....'......
 105e0 2326e4fe 938707ff b3878700 13070003  #&..............
 105f0 238ee7fc 6f00400a 232404fe 6f008004  #...o.@.#$..o...
 10600 9305a000 0325c4fa eff01fb7 93070500  .....%..........
 10610 13f7f70f 832784fe 93861700 2324d4fe  .....'......#$..
 10620 13070703 1377f70f 938707ff b3878700  .....w..........
 10630 2382e7fc 9305a000 0325c4fa eff09fa7  #........%......
 10640 2326a4fa 8327c4fa e39c07fa 832784fe  #&...'.......'..
 10650 9387f7ff 2322f4fe 6f008003 8327c4fe  ....#"..o....'..
 10660 13871700 2326e4fe 032744fe 130707ff  ....#&...'D.....
 10670 33078700 034747fc 938707ff b3878700  3....GG.........
 10680 238ee7fc 832744fe 9387f7ff 2322f4fe  #....'D.....#"..
 10690 832744fe e3d407fc 9307c4fc 0327c4fe  .'D..........'..
 106a0 93080004 13051000 b305f000 13060700  ................
 106b0 73000000 13000000 8320c105 03248105  s........ ...$..
 106c0 13010106 67800000 130101f8 232e1106  ....g.......#...
 106d0 232c8106 13040108 2326a4f8 2324b4f8  #,......#&..#$..
 106e0 8327c4f8 93d70701 2326f4fe 13071000  .'......#&......
 106f0 93070000 2320e4fe 2322f4fe 232e04fc  ....# ..#"..#...
 10700 6f008007 032304fe 832344fe 13070300  o....#...#D.....
 10710 93870300 9355e701 93962700 b3e6d500  .....U....'.....
 10720 13162700 13070600 93870600 33056700  ..'.........3.g.
 10730 130e0500 333eee00 b3857700 b307be00  ....3>....w.....
 10740 93850700 13070500 93870500 9355f701  .............U..
 10750 93981700 b3e81501 13181700 13070800  ................
 10760 93870800 2320e4fe 2322f4fe 8327c4fd  ....# ..#"...'..
 10770 93871700 232ef4fc 0327c4fd 832784f8  ....#....'...'..
 10780 e362f7f8 8327c4f8 93970701 93d70701  .b...'..........
 10790 032704fe 93050700 13850700 eff05fb3  .'............_.
 107a0 13060500 93860500 37850000 93050000  ........7.......
 107b0 3307a600 13080700 3338c800 b387b600  3.......38......
 107c0 b306f800 93870600 93960701 13560701  .............V..
 107d0 b366d600 2328d4fc 93d70701 232af4fc  .f..#(......#*..
 107e0 032744fe 832744fd 63ece702 032744fe  .'D..'D.c....'D.
 107f0 832744fd 6318f700 032704fe 832704fd  .'D.c....'...'..
 10800 63e0e702 8327c4fe 93871700 2326f4fe  c....'......#&..
 10810 93070000 13080000 2328f4fc 232a04fd  ........#(..#*..
 10820 0325c4fe eff05fd9 9307e002 a30ff4fa  .%...._.........
 10830 9307f4fb 13071000 93080004 13051000  ................
 10840 b305f000 13060700 73000000 232604fc  ........s...#&..
 10850 832704fe 032744fe b3e7e700 63920704  .'...'D.....c...
 10860 232404fc 6f00c002 8327c4fc 13871700  #$..o....'......
 10870 2326e4fc 938707ff b3878700 13070003  #&..............
 10880 2386e7fa 832784fc 93871700 2324f4fc  #....'......#$..
 10890 032784fc 832784f8 e368f7fc 6f004007  .'...'...h..o.@.
 108a0 832704fd 2322f4fc 832784f8 9387f7ff  .'..#"...'......
 108b0 2320f4fc 6f00c004 9305a000 032544fc  # ..o........%D.
 108c0 eff09f8b 93070500 93f7f70f 93870703  ................
 108d0 13f7f70f 832704fc 938707ff b3878700  .....'..........
 108e0 2386e7fa 9305a000 032544fc eff08ffc  #........%D.....
 108f0 2322a4fc 832704fc 9387f7ff 2320f4fc  #"...'......# ..
 10900 832704fc e3da07fa 832784f8 2326f4fc  .'.......'..#&..
 10910 9307c4f9 0327c4fc 93080004 13051000  .....'..........
 10920 b305f000 13060700 73000000 13000000  ........s.......
 10930 8320c107 03248107 13010108 67800000  . ...$......g...
 10940 130101fd 23261102 23248102 13040103  ....#&..#$......
 10950 232ea4fc 8327c4fd 63960700 93070002  #....'..c.......
 10960 6f00000b 232604fe 0327c4fd b7070100  o...#&...'......
 10970 637ef700 8327c4fe 93870701 2326f4fe  c~...'......#&..
 10980 8327c4fd 93970701 232ef4fc 0327c4fd  .'......#....'..
 10990 b7070001 637ef700 8327c4fe 93878700  ....c~...'......
 109a0 2326f4fe 8327c4fd 93978700 232ef4fc  #&...'......#...
 109b0 0327c4fd b7070010 637ef700 8327c4fe  .'......c~...'..
 109c0 93874700 2326f4fe 8327c4fd 93974700  ..G.#&...'....G.
 109d0 232ef4fc 0327c4fd b7070040 637ef700  #....'.....@c~..
 109e0 8327c4fe 93872700 2326f4fe 8327c4fd  .'....'.#&...'..
 109f0 93972700 232ef4fc 8327c4fd 63c80700  ..'.#....'..c...
 10a00 8327c4fe 93871700 2326f4fe 8327c4fe  .'......#&...'..
 10a10 13850700 8320c102 03248102 13010103  ..... ...$......
 10a20 67800000 130101f9 23261106 23248106  g.......#&..#$..
 10a30 23222107 23203107 232e4105 232c5105  #"!.# 1.#.A.#,Q.
 10a40 232a6105 23287105 23268105 23249105  #*a.#(q.#&..#$..
 10a50 2322a105 2320b105 13040107 2326a4fa  #"..# ......#&..
 10a60 8327c4fa 63960700 9307f0ff 6f008023  .'..c.......o..#
 10a70 0327c4fa 93071000 6316f700 b7070100  .'......c.......
 10a80 6f004022 0325c4fa eff09feb 13070500  o.@".%..........
 10a90 9307f001 b387e740 2322f4fc b7170100  .......@#"......
 10aa0 138707f2 832744fc 93971700 b307f700  .....'D.........
 10ab0 83d70700 2326f4fc 832744fc 13071000  ....#&...'D.....
 10ac0 b317f700 0327c4fa 63f2e714 032744fc  .....'..c....'D.
 10ad0 9307e001 63c2e702 832744fc 93871700  ....c....'D.....
 10ae0 37170100 130707f2 93971700 b307f700  7...............
 10af0 83d70700 6f008000 93070000 2320f4fc  ....o.......# ..
 10b00 0327c4fc 832704fc b307f740 232ef4fa  .'...'.....@#...
 10b10 8327c4fa 232cf4f8 232e04f8 832744fc  .'..#,..#....'D.
 10b20 938707fe 63ca0700 13071000 b31df700  ....c...........
 10b30 130d0000 6f004001 930d0000 832744fc  ....o.@......'D.
 10b40 13071000 331df700 032584f9 8325c4f9  ....3....%...%..
 10b50 93060500 3387a641 93060700 13060500  ....3..A........
 10b60 b336d600 13860500 b307b641 b386d740  .6.........A...@
 10b70 93870600 93560701 93990701 b3e93601  .....V........6.
 10b80 13190701 832744fc 938707fe 63c80700  .....'D.....c...
 10b90 33daf900 930a0000 6f00c002 13971900  3.......o.......
 10ba0 9306f001 832744fc b387f640 b317f700  .....'D....@....
 10bb0 032744fc 335ae900 33ea4701 832744fc  .'D.3Z..3.G..'D.
 10bc0 b3daf900 232c44fb 832584fb 0325c4fb  ....#,D..%...%..
 10bd0 eff00ff0 13070500 93870500 93960701  ................
 10be0 13560701 2320c4fa 032604fa b3e6c600  .V..# ...&......
 10bf0 2320d4fa 93d70701 2322f4fa 032704fa  # ......#"...'..
 10c00 8327c4fc b387e740 2326f4fc 232404fc  .'.....@#&..#$..
 10c10 6f004008 8325c4fc 0325c4fc eff04feb  o.@..%...%....O.
 10c20 13070500 93870500 232ae4fa 832544fb  ........#*...%D.
 10c30 0325c4fa eff0cfe9 13070500 93870500  .%..............
 10c40 93960701 135b0701 33eb6601 93db0701  .....[..3.f.....
 10c50 232864fb 37070300 832704fb b307f740  #(d.7....'.....@
 10c60 93850700 0325c4fc eff08fe6 13070500  .....%..........
 10c70 93870500 9396f700 135c1701 33ec8601  .........\..3...
 10c80 93dc1701 232684fd 832784fc 93871700  ....#&...'......
 10c90 2324f4fc 032784fc 93071000 e3dce7f6  #$...'..........
 10ca0 8327c4fc 13850700 8320c106 03248106  .'....... ...$..
 10cb0 03294106 83290106 032ac105 832a8105  .)A..)...*...*..
 10cc0 032b4105 832b0105 032cc104 832c8104  .+A..+...,...,..
 10cd0 032d4104 832d0104 13010107 67800000  .-A..-......g...
 10ce0 130101f8 232e1106 232c8106 13040108  ....#...#,......
 10cf0 b7170100 938707f6 03a80700 03a54700  ..............G.
 10d00 83a58700 03a6c700 83a60701 03a74701  ..............G.
 10d10 83a78701 232404fd 2326a4fc 2328b4fc  ....#$..#&..#(..
 10d20 232ac4fc 232cd4fc 232ee4fc 2320f4fe  #*..#,..#...# ..
 10d30 232604fe 6f00001a 0327c4fe 930784fc  #&..o....'......
 10d40 13172700 b307f700 83a70700 2324f4fe  ..'.........#$..
 10d50 b7273d20 93878707 2320f4fc 230204fc  .'= ....# ..#...
 10d60 930704fc 13074000 93080004 13051000  ......@.........
 10d70 b305f000 13060700 73000000 032584fe  ........s....%..
 10d80 eff0cff4 032584fe eff0dfc9 2322a4fe  .....%......#"..
 10d90 b7277920 93870702 232cf4fa b7270000  .'y ....#,...'..
 10da0 9387d703 231ef4fa 230f04fa 930784fb  ....#...#.......
 10db0 13076000 93080004 13051000 b305f000  ..`.............
 10dc0 13060700 73000000 032544fe eff00ff0  ....s....%D.....
 10dd0 032744fe 9307f0ff 6316f706 b7170100  .'D.....c.......
 10de0 9387c7f7 83a80700 03a84700 03a58700  ..........G.....
 10df0 83a5c700 03a60701 83a64701 03a78701  ..........G.....
 10e00 232c14f9 232e04f9 2320a4fa 2322b4fa  #,..#...# ..#"..
 10e10 2324c4fa 2326d4fa 2328e4fa 83c7c701  #$..#&..#(......
 10e20 230af4fa 930784f9 1307c001 93080004  #...............
 10e30 13051000 b305f000 13060700 73000000  ............s...
 10e40 6f008008 b7170100 9387c7f9 03a60700  o...............
 10e50 83a64700 03a78700 2324c4f8 2326d4f8  ..G.....#$..#&..
 10e60 2328e4f8 03d7c700 231ae4f8 83c7e700  #(......#.......
 10e70 230bf4f8 930784f8 1307e000 93080004  #...............
 10e80 13051000 b305f000 13060700 73000000  ............s...
 10e90 93056000 032544fe eff01f83 b7170000  ..`..%D.........
 10ea0 938797a2 2312f4f8 230304f8 930744f8  ....#...#.....D.
 10eb0 13072000 93080004 13051000 b305f000  .. .............
 10ec0 13060700 73000000 8327c4fe 93871700  ....s....'......
 10ed0 2326f4fe 0327c4fe 93076000 e3fee7e4  #&...'....`.....
 10ee0 93070000 13850700 8320c107 03248107  ......... ...$..
 10ef0 13010108 67800000 f32500c8 732500c0  ....g....%..s%..
 10f00 732600c8 e39ac5fe 67800000 f32520c8  s&......g....% .
 10f10 732520c0 732620c8 e39ac5fe 67800000  s% .s& .....g...
Contents of section .rodata:
 10f20 000005b5 0080825a 0040412d 0020a116  .......Z.@A-. ..
 10f30 0010500b 0008a805 0004d402 00026a01  ..P...........j.
 10f40 0001b500 80005a00 40002d00 20001700  ......Z.@.-. ...
 10f50 10000b00 08000600 04000300 02000100  ................
 10f60 01000000 04000000 10000000 14000000  ................
 10f70 64000000 00000000 ffffffff 20202841  d...........  (A
 10f80 63747561 6c207661 6c756520 3d20696e  ctual value = in
 10f90 66696e69 7479290a 00000000 20202879  finity).....  (y
 10fa0 2f363535 3336207e 3d2000             /65536 ~= .     
Contents of section .riscv.attributes:
 0000 41280000 00726973 63760001 1e000000  A(...riscv......
 0010 04100572 76333269 3270315f 7a696373  ...rv32i2p1_zics
 0020 72327030 0008010a 0b                 r2p0.....       
Contents of section .comment:
 0000 4743433a 20287850 61636b20 474e5520  GCC: (xPack GNU 
 0010 52495343 2d562045 6d626564 64656420  RISC-V Embedded 
 0020 47434320 7838365f 36342920 31342e32  GCC x86_64) 14.2
 0030 2e3000                               .0.             
Contents of section .debug_line:
 0000 71000000 02001b00 00000101 fb0e0a00  q...............
 0010 01010101 00000001 00737461 72742e53  .........start.S
 0020 00000000 00000502 00000100 16030309  ................
 0030 08000103 01090800 01030209 08000103  ................
 0040 01090400 01030109 04000103 01090400  ................
 0050 01030409 04000103 03090400 01030109  ................
 0060 04000103 01090400 01030409 04000109  ................
 0070 04000001 013c0900 00050004 004e0000  .....<.......N..
 0080 00010101 fb0e0d00 01010101 00000001  ................
 0090 00000101 011f0500 00000046 00000083  ...........F....
 00a0 000000bc 00000000 01000002 011f020f  ................
 00b0 063f0000 00003f00 00000035 01000001  .?....?....5....
 00c0 46010000 02500100 00035901 00000405  F....P....Y.....
 00d0 01000502 3c000100 03200105 0e030109  ....<.... ......
 00e0 1c000105 14030109 08000105 0b030109  ................
 00f0 08000105 12030109 04000105 0b030009  ................
 0100 0c000105 10030009 0c000105 0e030009  ................
 0110 04000105 0d037f09 04000105 0c030009  ................
 0120 0c000103 02090400 01050103 01090400  ................
 0130 01030409 14000105 08030109 18000105  ................
 0140 10030109 08000105 13030209 08000103  ................
 0150 01090400 01050e03 02090400 01050503  ................
 0160 00090800 01051303 01090400 01052003  .............. .
 0170 01090c00 01052603 00090c00 01051303  ......&.........
 0180 00090400 01050c03 02090c00 01051703  ................
 0190 01090c00 01051e03 01091000 01051603  ................
 01a0 00090c00 01051f00 02040203 7a090c00  ............z...
 01b0 01051800 02040103 00090c00 01050c03  ................
 01c0 0a090800 01050103 01090400 01030309  ................
 01d0 14000105 08030109 18000105 10030109  ................
 01e0 08000105 13030209 08000105 0e030209  ................
 01f0 04000105 05030009 08000105 13030109  ................
 0200 04000105 20030109 0c000105 26030009  .... .......&...
 0210 0c000105 13030009 04000105 0c030209  ................
 0220 0c000105 17030109 0c000105 1f000204  ................
 0230 02037b09 10000105 18000204 01030009  ..{.............
 0240 0c000105 0c030909 08000105 01030109  ................
 0250 04000103 04091400 01050e03 01091800  ................
 0260 01050b03 01090400 01050f03 01090400  ................
 0270 01050c03 00090800 01051403 01090400  ................
 0280 01050b03 01091000 01030109 0c000105  ................
 0290 0c037c09 0c000103 06090800 01050103  ..|.............
 02a0 01090400 01030409 14000105 0c030109  ................
 02b0 18000105 01030109 10000105 2f030409  ............/...
 02c0 14000105 0e030109 18000103 01091000  ................
 02d0 01050503 00090400 01051503 01090400  ................
 02e0 01050f03 00090c00 01050c03 00090800  ................
 02f0 01051303 01090400 01051f03 00090c00  ................
 0300 01050f03 00094000 01051d00 02040203  ......@.........
 0310 7e092800 01051700 02040103 00090c00  ~.(.............
 0320 01050c03 04090c00 01050103 01090800  ................
 0330 01030409 18000105 0b030209 14000105  ................
 0340 08030109 0c000105 06030109 0c000105  ................
 0350 08030209 0c000105 0c030109 08000105  ................
 0360 0a030109 0c000105 1d030309 10000105  ................
 0370 11030009 04000105 10030109 08000105  ................
 0380 26000204 01030009 0c000105 10000204  &...............
 0390 01030009 08000105 3e000204 02030009  ........>.......
 03a0 0c000105 10000204 02030009 08000100  ................
 03b0 02040406 03000908 0001050e 06030109  ................
 03c0 08000105 11030109 0c000105 14037c09  ..............|.
 03d0 0c000105 06030809 08000105 05030109  ................
 03e0 0c000105 01030109 28000103 04091400  ........(.......
 03f0 01050b03 02091400 01050803 01090c00  ................
 0400 01050603 01090c00 01050803 02090c00  ................
 0410 01050c03 01090800 01050a03 01090c00  ................
 0420 01051803 03091000 01051600 02040103  ................
 0430 00091000 01051000 02040103 00090c00  ................
 0440 01050e03 01090800 01051303 01090c00  ................
 0450 01051403 7d091000 01050603 07090800  ....}...........
 0460 01050503 01090c00 01050103 01092800  ..............(.
 0470 01030509 14000105 09030209 14000105  ................
 0480 08030109 04000105 0e030109 08000105  ................
 0490 12030009 0c000105 0d030309 14000105  ................
 04a0 0f030109 04000105 25030109 04000105  ........%.......
 04b0 1f000204 01030009 10000105 13000204  ................
 04c0 01030009 04000105 1d000204 01030009  ................
 04d0 0c000105 17000204 01030009 08000105  ................
 04e0 13030109 0c000105 10037e09 10000105  ..........~.....
 04f0 12030409 08000105 09030009 0c000105  ................
 0500 12030109 04000105 1b030009 0c000105  ................
 0510 16030009 10000105 26000204 03037f09  ........&.......
 0520 0c000105 20000204 01030009 0c000105  .... ...........
 0530 05030309 08000105 01030109 1c000103  ................
 0540 04091400 01050e03 01091800 01030309  ................
 0550 0c000105 13030109 10000105 05030009  ................
 0560 04000105 0e030109 04000105 2b000204  ............+...
 0570 03037f09 68000105 1c000204 01030009  ....h...........
 0580 0c000105 18030509 0c000105 46000204  ............F...
 0590 01030009 24000105 0e000204 01030009  ....$...........
 05a0 20000105 08030109 18000105 12030209   ...............
 05b0 24000105 10030109 0c000105 05030309  $...............
 05c0 10000105 0a030309 08000105 05030109  ................
 05d0 08000105 09030409 1c000105 08030109  ................
 05e0 04000105 17030209 10000105 09030009  ................
 05f0 04000105 14030109 04000105 18030009  ................
 0600 0c000105 2f000204 03037f09 10000105  ..../...........
 0610 20000204 01030009 0c000105 1b030509   ...............
 0620 10000105 26030109 08000105 16030009  ....&...........
 0630 08000105 0d030009 04000105 27030109  ............'...
 0640 04000105 21000204 01030009 10000105  ....!...........
 0650 1f000204 01030009 04000105 19000204  ................
 0660 01030009 08000105 17030109 10000105  ................
 0670 33000204 03037e09 10000105 2d000204  3.....~.....-...
 0680 01030009 0c000105 0c030509 08000105  ................
 0690 05030209 08000105 01030109 1c000105  ................
 06a0 1c030309 14000105 08030109 14000105  ................
 06b0 14000204 01030009 08000106 03000904  ................
 06c0 00010509 06030109 04000105 08030109  ................
 06d0 04000105 21000204 01030009 0c000105  ....!...........
 06e0 2a000204 01030009 0c000105 08030109  *...............
 06f0 0c000105 21000204 01030009 0c000105  ....!...........
 0700 2a000204 01030009 0c000105 08030109  *...............
 0710 0c000105 21000204 01030009 0c000105  ....!...........
 0720 2a000204 01030009 0c000105 08030109  *...............
 0730 0c000105 21000204 01030009 0c000105  ....!...........
 0740 2a000204 01030009 0c000105 09030109  *...............
 0750 0c000105 08030009 04000105 21000204  ............!...
 0760 01030009 04000105 0c030109 0c000105  ................
 0770 01030109 04000105 21031009 14000105  ........!.......
 0780 08030209 3c000105 18000204 01030009  ....<...........
 0790 08000106 03000904 00010508 06030109  ................
 07a0 04000105 18000204 01030009 0c000106  ................
 07b0 03000904 00010514 06030309 04000105  ................
 07c0 09000204 01030009 0c000105 1d030309  ................
 07d0 0c000105 0e030009 18000105 11030309  ................
 07e0 04000105 08030009 0c000105 3d030209  ............=...
 07f0 08000105 38000204 01030009 0c000105  ....8...........
 0800 33000204 01030009 08000105 3d000204  3...........=...
 0810 02030009 18000105 12000204 04030009  ................
 0820 04000103 01090400 01052903 02091000  ..........).....
 0830 01053d03 00090c00 01053503 00092c00  ..=.......5...,.
 0840 01054603 00092c00 01054d03 00091000  ..F...,...M.....
 0850 01051203 00094000 01051903 02090400  ......@.........
 0860 01052b00 02040103 00091400 01050e00  ..+.............
 0870 02040103 00092000 01050b00 02040103  ...... .........
 0880 00090400 01050e03 07090c00 01050503  ................
 0890 00090400 01052203 01090400 01051200  ......".........
 08a0 02040103 00091400 01052303 01090400  ..........#.....
 08b0 01053000 02040103 00091400 01051200  ..0.............
 08c0 02040103 00091000 01051803 01090400  ................
 08d0 01053300 02040103 00092000 01050b00  ..3....... .....
 08e0 02040103 00091000 01052200 02040303  ..........".....
 08f0 7d090400 01051d00 02040103 00090c00  }...............
 0900 01050c03 06090c00 01050103 01090400  ................
 0910 01051003 03093c00 01050e03 01091000  ......<.........
 0920 01051303 01094000 01050503 00090400  ......@.........
 0930 01051203 01090400 01050903 01091800  ................
 0940 01030109 2c000105 16030309 08000105  ....,...........
 0950 09030109 0c000103 01093800 01050c03  ..........8.....
 0960 01090800 01050d03 01090c00 01030109  ................
 0970 64000105 09030209 04000103 02094c00  d.............L.
 0980 01030109 0c000105 38000204 02037009  ........8.....p.
 0990 2c000105 1c000204 01030009 0c000105  ,...............
 09a0 0c031309 0c000105 01030109 04000109  ................
 09b0 14000001 016b0000 00020021 00000001  .....k.....!....
 09c0 01fb0e0a 00010101 01000000 01007065  ..............pe
 09d0 7266636f 756e7465 722e5300 00000000  rfcounter.S.....
 09e0 000502f8 0e010017 03010904 00010301  ................
 09f0 09040001 03010904 00010301 09040001  ................
 0a00 03080904 00010301 09040001 03010904  ................
 0a10 00010301 09040001 03010904 00010904  ................
 0a20 00000101                             ....            
Contents of section .debug_info:
 0000 31000000 02000000 00000401 00000000  1...............
 0010 00000100 3c000100 00000000 08000000  ....<...........
 0020 47000000 01800255 00000001 00000100  G......U........
 0030 40000100 007c0700 00050001 04210000  @....|.......!..
 0040 0012e200 00001d3f 00000000 0000003c  .......?.......<
 0050 000100bc 0e000075 00000004 0106b001  .......u........
 0060 00000863 00000002 2b183900 00000401  ...c....+.9.....
 0070 08ae0100 00040205 c8010000 08f50100  ................
 0080 00023919 53000000 0402074c 01000004  ..9.S......L....
 0090 0405a700 000008d7 00000002 4f196d00  ............O.m.
 00a0 00000404 07850000 00040805 a2000000  ................
 00b0 089e0100 00026919 87000000 04080780  ......i.........
 00c0 00000013 0405696e 74000404 078a0000  ......int.......
 00d0 00086500 00000318 132d0000 000f9c00  ..e......-......
 00e0 000008f7 01000003 24144700 00000fad  ........$.G.....
 00f0 00000008 d9000000 03301461 00000008  .........0.a....
 0100 a0010000 033c147b 00000008 5c000000  .....<.{....\...
 0110 04d61795 00000004 10047601 00001404  ..........v.....
 0120 0df00000 00040108 b7010000 05f00000  ................
 0130 00070100 00069500 00001700 05b90000  ................
 0140 00170100 00069500 00001f00 0f070100  ................
 0150 00073101 0000f017 17010000 0503200f  ..1........... .
 0160 0100150a 02000001 2001058e 000000e0  ........ .......
 0170 0c010018 02000001 9c230200 000a7873  .........#....xs
 0180 0021010e 23020000 02914803 300d0100  .!..#.....H.0...
 0190 b0010000 0a690022 01139500 00000291  .....i."........
 01a0 6c03380d 01009001 00000a78 00230112  l.8........x.#..
 01b0 be000000 0291680a 79002801 12be0000  ......h.y.(.....
 01c0 00029164 0b500d01 002c0000 00ac0100  ...d.P...,......
 01d0 00093d01 00002401 09330200 00029140  ..=...$..3.....@
 01e0 000b900d 01003800 0000ca01 0000093d  ......8........=
 01f0 01000029 01094302 00000391 b87f000b  ...)..C.........
 0200 dc0d0100 64000000 e8010000 093d0100  ....d........=..
 0210 002c010d 53020000 0391987f 000b440e  .,..S.........D.
 0220 01004c00 00000602 0000093d 0100002f  ..L........=.../
 0230 01096302 00000391 887f0003 9c0e0100  ..c.............
 0240 2c000000 093d0100 00320109 73020000  ,....=...2..s...
 0250 0391847f 00000000 05be0000 00330200  .............3..
 0260 00069500 00000600 05f00000 00430200  .............C..
 0270 00069500 00000400 05f00000 00530200  .............S..
 0280 00069500 00000600 05f00000 00630200  .............c..
 0290 00069500 00001c00 05f00000 00730200  .............s..
 02a0 00069500 00000e00 05f00000 00830200  ................
 02b0 00069500 00000200 115f0100 00fcbe00  ........._......
 02c0 0000240a 0100bc02 0000019c 44030000  ..$.........D...
 02d0 027800fc 1ebe0000 000391ac 7f0a6578  .x............ex
 02e0 70000201 098e0000 00029144 0a790005  p..........D.y..
 02f0 010ebe00 00000291 4c0bcc0a 01004001  ........L.....@.
 0300 00000103 000009d2 0100000a 0112be00  ................
 0310 00000291 40099700 00000b01 12be0000  ....@...........
 0320 000391bc 7f09a901 00000d01 12be0000  ................
 0330 000391b8 7f00030c 0c010094 00000009  ................
 0340 6a010000 16010e8e 00000002 91480314  j............H..
 0350 0c010074 0000000a 79320017 0112be00  ...t....y2......
 0360 00000391 b47f0a78 79320018 0112be00  .......xy2......
 0370 00000391 b07f0000 0016636c 7a0001e3  ..........clz...
 0380 0c8e0000 00400901 00e40000 00019c77  .....@.........w
 0390 03000002 7800e319 be000000 02915c01  ....x.........\.
 03a0 6e00e509 8e000000 02916c00 108f0100  n.........l.....
 03b0 00b5c806 01007802 0000019c 5f040000  ......x....._...
 03c0 027900b5 20be0000 0003918c 7f0cbc01  .y.. ...........
 03d0 0000b52c 95000000 0391887f 07ec0100  ...,............
 03e0 00b70ebe 00000002 916c078a 010000ba  .........l......
 03f0 0eca0000 00029160 076f0100 00c00eca  .......`.o......
 0400 00000002 91500164 6f7400ca 0af00000  .....P.dot......
 0410 000391bf 7f079d00 0000ce0a 5f040000  ............_...
 0420 03919c7f 01666900 cf098e00 00000291  .....fi.........
 0430 4c0bfc06 01008800 00001604 00000169  L..............i
 0440 00bb1395 00000002 915c000b 60080100  .........\..`...
 0450 40000000 30040000 016900d2 17950000  @...0....i......
 0460 00029148 0003a008 01006800 00000174  ...H......h....t
 0470 6d7000d7 1b6d0000 00029144 03a80801  mp...m.....D....
 0480 00600000 00016400 d8168e00 00000291  .`....d.........
 0490 40000000 05f00000 006f0400 00069500  @........o......
 04a0 00001f00 10b60000 00a1b805 01001001  ................
 04b0 0000019c e9040000 0276616c 00a12c6d  .........val..,m
 04c0 00000003 91ac7f01 62756600 a30af700  ........buf.....
 04d0 00000291 4c016900 a4098e00 00000291  ....L.i.........
 04e0 6c03f805 0100a000 00000174 6d7000a8  l..........tmp..
 04f0 0ef70000 000391b4 7f017469 00a90d8e  ..........ti....
 0500 00000002 9168034c 0601004c 00000001  .....h.L...L....
 0510 6b00ae12 8e000000 02916400 00001076  k.........d....v
 0520 00000089 cc040100 ec000000 019c2605  ..............&.
 0530 00000276 616c0089 256d0000 0002914c  ...val..%m.....L
 0540 01627566 008b0a26 05000002 91580170  .buf...&.....X.p
 0550 008c0beb 00000002 916c0005 f0000000  .........l......
 0560 36050000 06950000 00130017 42010000  6...........B...
 0570 01710dc4 03010008 01000001 9c8d0500  .q..............
 0580 00027661 6c007125 6d000000 02914c01  ..val.q%m.....L.
 0590 62756600 730a2605 00000291 54017000  buf.s.&.....T.p.
 05a0 740beb00 00000291 6c032004 01005c00  t.......l. ...\.
 05b0 000007b0 0000007d 118e0000 00029168  .......}.......h
 05c0 00000e2b 01000067 11ca0000 00d00201  ...+...g........
 05d0 00f40000 00019ce1 05000002 61006720  ............a.g 
 05e0 be000000 02915c02 6200672c be000000  ......\.b.g,....
 05f0 02915801 7200680e ca000000 02916803  ..X.r.h.......h.
 0600 f8020100 ac000000 01690069 0e8e0000  .........i.i....
 0610 00029164 000011d9 01000060 be000000  ...d.......`....
 0620 94020100 3c000000 019c1206 00000261  ....<..........a
 0630 00601cbe 00000002 916c0262 006028be  .`.......l.b.`(.
 0640 00000002 9168000e 00020000 5311be00  .....h......S...
 0650 00002002 01007400 0000019c 52060000  .. ...t.....R...
 0660 02610053 1fbe0000 0002915c 02620053  .a.S.......\.b.S
 0670 2bbe0000 00029158 070f0200 00550ebe  +......X.....U..
 0680 00000002 916c000e 16020000 3f166d00  .....l......?.m.
 0690 00007801 0100a800 0000019c ac060000  ..x.............
 06a0 0cce0000 003f296d 00000002 915c0c82  .....?)m.....\..
 06b0 0100003f 416d0000 00029158 07e20100  ...?Am.....X....
 06c0 0044136d 00000002 916c03a4 01010064  .D.m.....l.....d
 06d0 00000001 6900460e 8e000000 02916800  ....i.F.......h.
 06e0 000e0502 00002a16 6d000000 b4000100  ......*.m.......
 06f0 c4000000 019c1407 00000cce 0000002a  ...............*
 0700 296d0000 0002915c 0c820100 002a416d  )m.....\.....*Am
 0710 00000002 9158076d 0000002f 136d0000  .....X.m.../.m..
 0720 0002916c 07e20100 0030136d 00000002  ...l.....0.m....
 0730 916803e4 0001007c 00000001 6900320e  .h.....|....i.2.
 0740 8e000000 02916400 0018c700 0000051f  ......d.........
 0750 09e90000 003c0001 00780000 00019c6f  .....<...x.....o
 0760 0700000c 99010000 2014e900 00000291  ........ .......
 0770 5c027372 63002026 6f070000 02915802  \.src. &o.....X.
 0780 6e002032 d6000000 02915401 6400220e  n. 2......T.d.".
 0790 75070000 02916c01 73002314 7a070000  u.....l.s.#.z...
 07a0 02916800 0d740700 00190d9c 0000000d  ..h..t..........
 07b0 a8000000 00220000 000200cd 01000004  ....."..........
 07c0 01b50900 00f80e01 00200f01 001b0200  ......... ......
 07d0 00080000 00470000 000180             .....G.....     
Contents of section .debug_abbrev:
 0000 01110110 06110112 01030e1b 0e250e13  .............%..
 0010 05000002 2e00030e 3f0c1101 12010000  ........?.......
 0020 00013400 03083a21 013b0b39 0b491302  ..4...:!.;.9.I..
 0030 18000002 05000308 3a21013b 0b390b49  ........:!.;.9.I
 0040 13021800 00030b01 11011206 00000424  ...............$
 0050 000b0b3e 0b030e00 00050101 49130113  ...>........I...
 0060 00000621 0049132f 0b000007 3400030e  ...!.I./....4...
 0070 3a21013b 0b390b49 13021800 00081600  :!.;.9.I........
 0080 030e3a0b 3b0b390b 49130000 09340003  ..:.;.9.I....4..
 0090 0e3a2101 3b05390b 49130218 00000a34  .:!.;.9.I......4
 00a0 0003083a 21013b05 390b4913 02180000  ...:!.;.9.I.....
 00b0 0b0b0111 01120601 1300000c 0500030e  ................
 00c0 3a21013b 0b390b49 13021800 000d0f00  :!.;.9.I........
 00d0 0b210449 1300000e 2e01030e 3a21013b  .!.I........:!.;
 00e0 0b390b27 19491311 01120640 187a1901  .9.'.I.....@.z..
 00f0 1300000f 26004913 0000102e 01030e3a  ....&.I........:
 0100 21013b0b 39210d27 19110112 0640187c  !.;.9!.'.....@.|
 0110 19011300 00112e01 3f19030e 3a21013b  ........?...:!.;
 0120 0b39210a 27194913 11011206 40187c19  .9!.'.I.....@.|.
 0130 01130000 12110125 0e130b03 1f1b1f11  .......%........
 0140 01120610 17000013 24000b0b 3e0b0308  ........$...>...
 0150 0000140f 000b0b00 00152e01 3f19030e  ............?...
 0160 3a0b3b05 390b2719 49131101 12064018  :.;.9.'.I.....@.
 0170 7c190113 0000162e 0103083a 0b3b0b39  |..........:.;.9
 0180 0b271949 13110112 0640187a 19011300  .'.I.....@.z....
 0190 00172e01 030e3a0b 3b0b390b 27191101  ......:.;.9.'...
 01a0 12064018 7a190113 0000182e 013f1903  ..@.z........?..
 01b0 0e3a0b3b 0b390b27 19491311 01120640  .:.;.9.'.I.....@
 01c0 187a1901 13000019 26000000 00011100  .z......&.......
 01d0 10061101 1201030e 1b0e250e 13050000  ..........%.....
 01e0 00                                   .               
Contents of section .debug_aranges:
 0000 1c000000 02000000 00000400 00000000  ................
 0010 00000100 3c000000 00000000 00000000  ....<...........
 0020 1c000000 02003500 00000400 00000000  ......5.........
 0030 3c000100 bc0e0000 00000000 00000000  <...............
 0040 1c000000 0200b507 00000400 00000000  ................
 0050 f80e0100 28000000 00000000 00000000  ....(...........
Contents of section .debug_str:
 0000 73746172 742e5300 2f686f6d 652f6b69  start.S./home/ki
 0010 77692f70 726f6a65 63742f43 6f6d7075  wi/project/Compu
 0020 7465722d 41726368 69746563 74757265  ter-Architecture
 0030 5f485732 2f517569 7a335f50 6c617967  _HW2/Quiz3_Playg
 0040 726f756f 6e640047 4e552041 5320322e  rouond.GNU AS 2.
 0050 34332e31 005f7374 61727400 73697a65  43.1._start.size
 0060 5f74005f 5f75696e 74385f74 0071756f  _t.__uint8_t.quo
 0070 7469656e 74007072 696e745f 64656300  tient.print_dec.
 0080 6c6f6e67 206c6f6e 6720756e 7369676e  long long unsign
 0090 65642069 6e740064 656c7461 00666275  ed int.delta.fbu
 00a0 66006c6f 6e67206c 6f6e6720 696e7400  f.long long int.
 00b0 64696769 74007072 696e745f 75696e74  digit.print_uint
 00c0 5f6e6f5f 6e6c006d 656d6370 79006469  _no_nl.memcpy.di
 00d0 76696465 6e64005f 5f75696e 7433325f  vidend.__uint32_
 00e0 7400474e 55204331 37203134 2e322e30  t.GNU C17 14.2.0
 00f0 202d6d61 62693d69 6c703332 202d6d69   -mabi=ilp32 -mi
 0100 73612d73 7065633d 32303139 31323133  sa-spec=20191213
 0110 202d6d61 7263683d 72763332 695f7a69   -march=rv32i_zi
 0120 63737220 2d67202d 4f30006d 756c3332  csr -g -O0.mul32
 0130 00727371 72745f74 61626c65 005f6d73  .rsqrt_table._ms
 0140 67007072 696e745f 68657800 73686f72  g.print_hex.shor
 0150 7420756e 7369676e 65642069 6e740066  t unsigned int.f
 0160 6173745f 72737172 74006974 65720066  ast_rsqrt.iter.f
 0170 72616336 34006c6f 6e672064 6f75626c  rac64.long doubl
 0180 65006469 7669736f 72006d75 6c740070  e.divisor.mult.p
 0190 72696e74 5f713136 00646573 74005f5f  rint_q16.dest.__
 01a0 75696e74 36345f74 00667261 6300756e  uint64_t.frac.un
 01b0 7369676e 65642063 68617200 66726163  signed char.frac
 01c0 5f646967 69747300 73686f72 7420696e  _digits.short in
 01d0 7400795f 6e657874 005f5f6d 756c7369  t.y_next.__mulsi
 01e0 33007265 6d61696e 64657200 696e745f  3.remainder.int_
 01f0 70617274 005f5f75 696e7431 365f7400  part.__uint16_t.
 0200 756d756c 00756469 76006d61 696e0072  umul.udiv.main.r
 0210 6573756c 7400756d 6f640070 65726663  esult.umod.perfc
 0220 6f756e74 65722e53 00                 ounter.S.       
Contents of section .debug_line_str:
 0000 2f686f6d 652f6b69 77692f70 726f6a65  /home/kiwi/proje
 0010 63742f43 6f6d7075 7465722d 41726368  ct/Computer-Arch
 0020 69746563 74757265 5f485732 2f517569  itecture_HW2/Qui
 0030 7a335f50 6c617967 726f756f 6e64006d  z3_Playgrouond.m
 0040 61696e2e 63002f68 6f6d652f 6b697769  ain.c./home/kiwi
 0050 2f726973 63762d6e 6f6e652d 656c662d  /riscv-none-elf-
 0060 6763632f 72697363 762d6e6f 6e652d65  gcc/riscv-none-e
 0070 6c662f69 6e636c75 64652f6d 61636869  lf/include/machi
 0080 6e65002f 686f6d65 2f6b6977 692f7269  ne./home/kiwi/ri
 0090 7363762d 6e6f6e65 2d656c66 2d676363  scv-none-elf-gcc
 00a0 2f726973 63762d6e 6f6e652d 656c662f  /riscv-none-elf/
 00b0 696e636c 7564652f 73797300 2f686f6d  include/sys./hom
 00c0 652f6b69 77692f72 69736376 2d6e6f6e  e/kiwi/riscv-non
 00d0 652d656c 662d6763 632f6c69 622f6763  e-elf-gcc/lib/gc
 00e0 632f7269 7363762d 6e6f6e65 2d656c66  c/riscv-none-elf
 00f0 2f31342e 322e302f 696e636c 75646500  /14.2.0/include.
 0100 2f686f6d 652f6b69 77692f72 69736376  /home/kiwi/riscv
 0110 2d6e6f6e 652d656c 662d6763 632f7269  -none-elf-gcc/ri
 0120 7363762d 6e6f6e65 2d656c66 2f696e63  scv-none-elf/inc
 0130 6c756465 005f6465 6661756c 745f7479  lude._default_ty
 0140 7065732e 68005f73 7464696e 742e6800  pes.h._stdint.h.
 0150 73746464 65662e68 00737472 696e672e  stddef.h.string.
 0160 6800                                 h.              
Contents of section .debug_frame:
 0000 0c000000 ffffffff 0300017c 010c0200  ...........|....
 0010 24000000 00000000 3c000100 78000000  $.......<...x...
 0020 440e3048 81018802 440c0800 025cc144  D.0H....D....\.D
 0030 c80c0230 440e0000 24000000 00000000  ...0D...$.......
 0040 b4000100 c4000000 440e3048 81018802  ........D.0H....
 0050 440c0800 02a8c144 c80c0230 440e0000  D......D...0D...
 0060 24000000 00000000 78010100 a8000000  $.......x.......
 0070 440e3048 81018802 440c0800 028cc144  D.0H....D......D
 0080 c80c0230 440e0000 24000000 00000000  ...0D...$.......
 0090 20020100 74000000 440e3048 81018802   ...t...D.0H....
 00a0 440c0800 0258c144 c80c0230 440e0000  D....X.D...0D...
 00b0 24000000 00000000 94020100 3c000000  $...........<...
 00c0 440e2048 81018802 440c0800 60c144c8  D. H....D...`.D.
 00d0 0c022044 0e000000 24000000 00000000  .. D....$.......
 00e0 d0020100 f4000000 440e3048 81018802  ........D.0H....
 00f0 440c0800 02d8c144 c80c0230 440e0000  D......D...0D...
 0100 24000000 00000000 c4030100 08010000  $...............
 0110 440e4048 81018802 440c0800 02ecc144  D.@H....D......D
 0120 c80c0240 440e0000 24000000 00000000  ...@D...$.......
 0130 cc040100 ec000000 440e4048 81018802  ........D.@H....
 0140 440c0800 02d0c144 c80c0240 440e0000  D......D...@D...
 0150 24000000 00000000 b8050100 10010000  $...............
 0160 440e6048 81018802 440c0800 02f4c144  D.`H....D......D
 0170 c80c0260 440e0000 28000000 00000000  ...`D...(.......
 0180 c8060100 78020000 440e8001 48810188  ....x...D...H...
 0190 02440c08 00035c02 c144c80c 02800144  .D....\..D.....D
 01a0 0e000000 24000000 00000000 40090100  ....$.......@...
 01b0 e4000000 440e3048 81018802 440c0800  ....D.0H....D...
 01c0 02c8c144 c80c0230 440e0000 4c000000  ...D...0D...L...
 01d0 00000000 240a0100 bc020000 440e7070  ....$.......D.pp
 01e0 81018802 92039304 94059506 96079708  ................
 01f0 9809990a 9a0b9b0c 440c0800 035002c1  ........D....P..
 0200 44c80c02 7044d244 d344d444 d544d644  D...pD.D.D.D.D.D
 0210 d744d844 d944da44 db440e00 28000000  .D.D.D.D.D..(...
 0220 00000000 e00c0100 18020000 440e8001  ............D...
 0230 48810188 02440c08 0003fc01 c144c80c  H....D.......D..
 0240 02800144 0e000000                    ...D....        

Disassembly of section .text:

00010000 <_start>:
   10000:	00002117          	auipc	sp,0x2
   10004:	fb010113          	addi	sp,sp,-80 # 11fb0 <__stack_top>
   10008:	00001297          	auipc	t0,0x1
   1000c:	fa328293          	addi	t0,t0,-93 # 10fab <__bss_end>
   10010:	00001317          	auipc	t1,0x1
   10014:	f9b30313          	addi	t1,t1,-101 # 10fab <__bss_end>
   10018:	0062d863          	bge	t0,t1,10028 <_start+0x28>
   1001c:	0002a023          	sw	zero,0(t0)
   10020:	00428293          	addi	t0,t0,4
   10024:	ff5ff06f          	j	10018 <_start+0x18>
   10028:	4b9000ef          	jal	10ce0 <main>
   1002c:	05d00893          	li	a7,93
   10030:	00000513          	li	a0,0
   10034:	00000073          	ecall
   10038:	0000006f          	j	10038 <_start+0x38>

0001003c <memcpy>:
   1003c:	fd010113          	addi	sp,sp,-48
   10040:	02112623          	sw	ra,44(sp)
   10044:	02812423          	sw	s0,40(sp)
   10048:	03010413          	addi	s0,sp,48
   1004c:	fca42e23          	sw	a0,-36(s0)
   10050:	fcb42c23          	sw	a1,-40(s0)
   10054:	fcc42a23          	sw	a2,-44(s0)
   10058:	fdc42783          	lw	a5,-36(s0)
   1005c:	fef42623          	sw	a5,-20(s0)
   10060:	fd842783          	lw	a5,-40(s0)
   10064:	fef42423          	sw	a5,-24(s0)
   10068:	0240006f          	j	1008c <memcpy+0x50>
   1006c:	fe842703          	lw	a4,-24(s0)
   10070:	00170793          	addi	a5,a4,1
   10074:	fef42423          	sw	a5,-24(s0)
   10078:	fec42783          	lw	a5,-20(s0)
   1007c:	00178693          	addi	a3,a5,1
   10080:	fed42623          	sw	a3,-20(s0)
   10084:	00074703          	lbu	a4,0(a4)
   10088:	00e78023          	sb	a4,0(a5)
   1008c:	fd442783          	lw	a5,-44(s0)
   10090:	fff78713          	addi	a4,a5,-1
   10094:	fce42a23          	sw	a4,-44(s0)
   10098:	fc079ae3          	bnez	a5,1006c <memcpy+0x30>
   1009c:	fdc42783          	lw	a5,-36(s0)
   100a0:	00078513          	mv	a0,a5
   100a4:	02c12083          	lw	ra,44(sp)
   100a8:	02812403          	lw	s0,40(sp)
   100ac:	03010113          	addi	sp,sp,48
   100b0:	00008067          	ret

000100b4 <udiv>:
   100b4:	fd010113          	addi	sp,sp,-48
   100b8:	02112623          	sw	ra,44(sp)
   100bc:	02812423          	sw	s0,40(sp)
   100c0:	03010413          	addi	s0,sp,48
   100c4:	fca42e23          	sw	a0,-36(s0)
   100c8:	fcb42c23          	sw	a1,-40(s0)
   100cc:	fd842783          	lw	a5,-40(s0)
   100d0:	00079663          	bnez	a5,100dc <udiv+0x28>
   100d4:	00000793          	li	a5,0
   100d8:	08c0006f          	j	10164 <udiv+0xb0>
   100dc:	fe042623          	sw	zero,-20(s0)
   100e0:	fe042423          	sw	zero,-24(s0)
   100e4:	01f00793          	li	a5,31
   100e8:	fef42223          	sw	a5,-28(s0)
   100ec:	06c0006f          	j	10158 <udiv+0xa4>
   100f0:	fe842783          	lw	a5,-24(s0)
   100f4:	00179793          	slli	a5,a5,0x1
   100f8:	fef42423          	sw	a5,-24(s0)
   100fc:	fe442783          	lw	a5,-28(s0)
   10100:	fdc42703          	lw	a4,-36(s0)
   10104:	00f757b3          	srl	a5,a4,a5
   10108:	0017f793          	andi	a5,a5,1
   1010c:	fe842703          	lw	a4,-24(s0)
   10110:	00f767b3          	or	a5,a4,a5
   10114:	fef42423          	sw	a5,-24(s0)
   10118:	fe842703          	lw	a4,-24(s0)
   1011c:	fd842783          	lw	a5,-40(s0)
   10120:	02f76663          	bltu	a4,a5,1014c <udiv+0x98>
   10124:	fe842703          	lw	a4,-24(s0)
   10128:	fd842783          	lw	a5,-40(s0)
   1012c:	40f707b3          	sub	a5,a4,a5
   10130:	fef42423          	sw	a5,-24(s0)
   10134:	fe442783          	lw	a5,-28(s0)
   10138:	00100713          	li	a4,1
   1013c:	00f717b3          	sll	a5,a4,a5
   10140:	fec42703          	lw	a4,-20(s0)
   10144:	00f767b3          	or	a5,a4,a5
   10148:	fef42623          	sw	a5,-20(s0)
   1014c:	fe442783          	lw	a5,-28(s0)
   10150:	fff78793          	addi	a5,a5,-1
   10154:	fef42223          	sw	a5,-28(s0)
   10158:	fe442783          	lw	a5,-28(s0)
   1015c:	f807dae3          	bgez	a5,100f0 <udiv+0x3c>
   10160:	fec42783          	lw	a5,-20(s0)
   10164:	00078513          	mv	a0,a5
   10168:	02c12083          	lw	ra,44(sp)
   1016c:	02812403          	lw	s0,40(sp)
   10170:	03010113          	addi	sp,sp,48
   10174:	00008067          	ret

00010178 <umod>:
   10178:	fd010113          	addi	sp,sp,-48
   1017c:	02112623          	sw	ra,44(sp)
   10180:	02812423          	sw	s0,40(sp)
   10184:	03010413          	addi	s0,sp,48
   10188:	fca42e23          	sw	a0,-36(s0)
   1018c:	fcb42c23          	sw	a1,-40(s0)
   10190:	fd842783          	lw	a5,-40(s0)
   10194:	00079663          	bnez	a5,101a0 <umod+0x28>
   10198:	00000793          	li	a5,0
   1019c:	0700006f          	j	1020c <umod+0x94>
   101a0:	fe042623          	sw	zero,-20(s0)
   101a4:	01f00793          	li	a5,31
   101a8:	fef42423          	sw	a5,-24(s0)
   101ac:	0540006f          	j	10200 <umod+0x88>
   101b0:	fec42783          	lw	a5,-20(s0)
   101b4:	00179793          	slli	a5,a5,0x1
   101b8:	fef42623          	sw	a5,-20(s0)
   101bc:	fe842783          	lw	a5,-24(s0)
   101c0:	fdc42703          	lw	a4,-36(s0)
   101c4:	00f757b3          	srl	a5,a4,a5
   101c8:	0017f793          	andi	a5,a5,1
   101cc:	fec42703          	lw	a4,-20(s0)
   101d0:	00f767b3          	or	a5,a4,a5
   101d4:	fef42623          	sw	a5,-20(s0)
   101d8:	fec42703          	lw	a4,-20(s0)
   101dc:	fd842783          	lw	a5,-40(s0)
   101e0:	00f76a63          	bltu	a4,a5,101f4 <umod+0x7c>
   101e4:	fec42703          	lw	a4,-20(s0)
   101e8:	fd842783          	lw	a5,-40(s0)
   101ec:	40f707b3          	sub	a5,a4,a5
   101f0:	fef42623          	sw	a5,-20(s0)
   101f4:	fe842783          	lw	a5,-24(s0)
   101f8:	fff78793          	addi	a5,a5,-1
   101fc:	fef42423          	sw	a5,-24(s0)
   10200:	fe842783          	lw	a5,-24(s0)
   10204:	fa07d6e3          	bgez	a5,101b0 <umod+0x38>
   10208:	fec42783          	lw	a5,-20(s0)
   1020c:	00078513          	mv	a0,a5
   10210:	02c12083          	lw	ra,44(sp)
   10214:	02812403          	lw	s0,40(sp)
   10218:	03010113          	addi	sp,sp,48
   1021c:	00008067          	ret

00010220 <umul>:
   10220:	fd010113          	addi	sp,sp,-48
   10224:	02112623          	sw	ra,44(sp)
   10228:	02812423          	sw	s0,40(sp)
   1022c:	03010413          	addi	s0,sp,48
   10230:	fca42e23          	sw	a0,-36(s0)
   10234:	fcb42c23          	sw	a1,-40(s0)
   10238:	fe042623          	sw	zero,-20(s0)
   1023c:	0380006f          	j	10274 <umul+0x54>
   10240:	fd842783          	lw	a5,-40(s0)
   10244:	0017f793          	andi	a5,a5,1
   10248:	00078a63          	beqz	a5,1025c <umul+0x3c>
   1024c:	fec42703          	lw	a4,-20(s0)
   10250:	fdc42783          	lw	a5,-36(s0)
   10254:	00f707b3          	add	a5,a4,a5
   10258:	fef42623          	sw	a5,-20(s0)
   1025c:	fdc42783          	lw	a5,-36(s0)
   10260:	00179793          	slli	a5,a5,0x1
   10264:	fcf42e23          	sw	a5,-36(s0)
   10268:	fd842783          	lw	a5,-40(s0)
   1026c:	0017d793          	srli	a5,a5,0x1
   10270:	fcf42c23          	sw	a5,-40(s0)
   10274:	fd842783          	lw	a5,-40(s0)
   10278:	fc0794e3          	bnez	a5,10240 <umul+0x20>
   1027c:	fec42783          	lw	a5,-20(s0)
   10280:	00078513          	mv	a0,a5
   10284:	02c12083          	lw	ra,44(sp)
   10288:	02812403          	lw	s0,40(sp)
   1028c:	03010113          	addi	sp,sp,48
   10290:	00008067          	ret

00010294 <__mulsi3>:
   10294:	fe010113          	addi	sp,sp,-32
   10298:	00112e23          	sw	ra,28(sp)
   1029c:	00812c23          	sw	s0,24(sp)
   102a0:	02010413          	addi	s0,sp,32
   102a4:	fea42623          	sw	a0,-20(s0)
   102a8:	feb42423          	sw	a1,-24(s0)
   102ac:	fe842583          	lw	a1,-24(s0)
   102b0:	fec42503          	lw	a0,-20(s0)
   102b4:	f6dff0ef          	jal	10220 <umul>
   102b8:	00050793          	mv	a5,a0
   102bc:	00078513          	mv	a0,a5
   102c0:	01c12083          	lw	ra,28(sp)
   102c4:	01812403          	lw	s0,24(sp)
   102c8:	02010113          	addi	sp,sp,32
   102cc:	00008067          	ret

000102d0 <mul32>:
   102d0:	fd010113          	addi	sp,sp,-48
   102d4:	02112623          	sw	ra,44(sp)
   102d8:	02812423          	sw	s0,40(sp)
   102dc:	03010413          	addi	s0,sp,48
   102e0:	fca42e23          	sw	a0,-36(s0)
   102e4:	fcb42c23          	sw	a1,-40(s0)
   102e8:	00000513          	li	a0,0
   102ec:	00000593          	li	a1,0
   102f0:	fea42423          	sw	a0,-24(s0)
   102f4:	feb42623          	sw	a1,-20(s0)
   102f8:	fe042223          	sw	zero,-28(s0)
   102fc:	09c0006f          	j	10398 <mul32+0xc8>
   10300:	fe442583          	lw	a1,-28(s0)
   10304:	00100513          	li	a0,1
   10308:	00b51533          	sll	a0,a0,a1
   1030c:	fd842583          	lw	a1,-40(s0)
   10310:	00b575b3          	and	a1,a0,a1
   10314:	06058c63          	beqz	a1,1038c <mul32+0xbc>
   10318:	fdc42583          	lw	a1,-36(s0)
   1031c:	00058613          	mv	a2,a1
   10320:	00000693          	li	a3,0
   10324:	fe442583          	lw	a1,-28(s0)
   10328:	fe058593          	addi	a1,a1,-32
   1032c:	0005c863          	bltz	a1,1033c <mul32+0x6c>
   10330:	00b617b3          	sll	a5,a2,a1
   10334:	00000713          	li	a4,0
   10338:	02c0006f          	j	10364 <mul32+0x94>
   1033c:	00165513          	srli	a0,a2,0x1
   10340:	01f00813          	li	a6,31
   10344:	fe442583          	lw	a1,-28(s0)
   10348:	40b805b3          	sub	a1,a6,a1
   1034c:	00b555b3          	srl	a1,a0,a1
   10350:	fe442503          	lw	a0,-28(s0)
   10354:	00a697b3          	sll	a5,a3,a0
   10358:	00f5e7b3          	or	a5,a1,a5
   1035c:	fe442583          	lw	a1,-28(s0)
   10360:	00b61733          	sll	a4,a2,a1
   10364:	fe842803          	lw	a6,-24(s0)
   10368:	fec42883          	lw	a7,-20(s0)
   1036c:	00e80533          	add	a0,a6,a4
   10370:	00050313          	mv	t1,a0
   10374:	01033333          	sltu	t1,t1,a6
   10378:	00f885b3          	add	a1,a7,a5
   1037c:	00b30833          	add	a6,t1,a1
   10380:	00080593          	mv	a1,a6
   10384:	fea42423          	sw	a0,-24(s0)
   10388:	feb42623          	sw	a1,-20(s0)
   1038c:	fe442583          	lw	a1,-28(s0)
   10390:	00158593          	addi	a1,a1,1
   10394:	feb42223          	sw	a1,-28(s0)
   10398:	fe442503          	lw	a0,-28(s0)
   1039c:	01f00593          	li	a1,31
   103a0:	f6a5d0e3          	bge	a1,a0,10300 <mul32+0x30>
   103a4:	fe842703          	lw	a4,-24(s0)
   103a8:	fec42783          	lw	a5,-20(s0)
   103ac:	00070513          	mv	a0,a4
   103b0:	00078593          	mv	a1,a5
   103b4:	02c12083          	lw	ra,44(sp)
   103b8:	02812403          	lw	s0,40(sp)
   103bc:	03010113          	addi	sp,sp,48
   103c0:	00008067          	ret

000103c4 <print_hex>:
   103c4:	fc010113          	addi	sp,sp,-64
   103c8:	02112e23          	sw	ra,60(sp)
   103cc:	02812c23          	sw	s0,56(sp)
   103d0:	04010413          	addi	s0,sp,64
   103d4:	fca42623          	sw	a0,-52(s0)
   103d8:	fd440793          	addi	a5,s0,-44
   103dc:	01378793          	addi	a5,a5,19
   103e0:	fef42623          	sw	a5,-20(s0)
   103e4:	fec42783          	lw	a5,-20(s0)
   103e8:	00a00713          	li	a4,10
   103ec:	00e78023          	sb	a4,0(a5)
   103f0:	fec42783          	lw	a5,-20(s0)
   103f4:	fff78793          	addi	a5,a5,-1
   103f8:	fef42623          	sw	a5,-20(s0)
   103fc:	fcc42783          	lw	a5,-52(s0)
   10400:	06079e63          	bnez	a5,1047c <print_hex+0xb8>
   10404:	fec42783          	lw	a5,-20(s0)
   10408:	03000713          	li	a4,48
   1040c:	00e78023          	sb	a4,0(a5)
   10410:	fec42783          	lw	a5,-20(s0)
   10414:	fff78793          	addi	a5,a5,-1
   10418:	fef42623          	sw	a5,-20(s0)
   1041c:	0680006f          	j	10484 <print_hex+0xc0>
   10420:	fcc42783          	lw	a5,-52(s0)
   10424:	00f7f793          	andi	a5,a5,15
   10428:	fef42423          	sw	a5,-24(s0)
   1042c:	fe842703          	lw	a4,-24(s0)
   10430:	00900793          	li	a5,9
   10434:	00e7cc63          	blt	a5,a4,1044c <print_hex+0x88>
   10438:	fe842783          	lw	a5,-24(s0)
   1043c:	0ff7f793          	zext.b	a5,a5
   10440:	03078793          	addi	a5,a5,48
   10444:	0ff7f793          	zext.b	a5,a5
   10448:	0140006f          	j	1045c <print_hex+0x98>
   1044c:	fe842783          	lw	a5,-24(s0)
   10450:	0ff7f793          	zext.b	a5,a5
   10454:	05778793          	addi	a5,a5,87
   10458:	0ff7f793          	zext.b	a5,a5
   1045c:	fec42703          	lw	a4,-20(s0)
   10460:	00f70023          	sb	a5,0(a4)
   10464:	fec42783          	lw	a5,-20(s0)
   10468:	fff78793          	addi	a5,a5,-1
   1046c:	fef42623          	sw	a5,-20(s0)
   10470:	fcc42783          	lw	a5,-52(s0)
   10474:	0047d793          	srli	a5,a5,0x4
   10478:	fcf42623          	sw	a5,-52(s0)
   1047c:	fcc42783          	lw	a5,-52(s0)
   10480:	fa0790e3          	bnez	a5,10420 <print_hex+0x5c>
   10484:	fec42783          	lw	a5,-20(s0)
   10488:	00178793          	addi	a5,a5,1
   1048c:	fef42623          	sw	a5,-20(s0)
   10490:	fd440793          	addi	a5,s0,-44
   10494:	01478793          	addi	a5,a5,20
   10498:	fec42703          	lw	a4,-20(s0)
   1049c:	40e78733          	sub	a4,a5,a4
   104a0:	fec42783          	lw	a5,-20(s0)
   104a4:	04000893          	li	a7,64
   104a8:	00100513          	li	a0,1
   104ac:	00f005b3          	add	a1,zero,a5
   104b0:	00070613          	mv	a2,a4
   104b4:	00000073          	ecall
   104b8:	00000013          	nop
   104bc:	03c12083          	lw	ra,60(sp)
   104c0:	03812403          	lw	s0,56(sp)
   104c4:	04010113          	addi	sp,sp,64
   104c8:	00008067          	ret

000104cc <print_dec>:
   104cc:	fc010113          	addi	sp,sp,-64
   104d0:	02112e23          	sw	ra,60(sp)
   104d4:	02812c23          	sw	s0,56(sp)
   104d8:	04010413          	addi	s0,sp,64
   104dc:	fca42623          	sw	a0,-52(s0)
   104e0:	fd840793          	addi	a5,s0,-40
   104e4:	01378793          	addi	a5,a5,19
   104e8:	fef42623          	sw	a5,-20(s0)
   104ec:	fec42783          	lw	a5,-20(s0)
   104f0:	00a00713          	li	a4,10
   104f4:	00e78023          	sb	a4,0(a5)
   104f8:	fec42783          	lw	a5,-20(s0)
   104fc:	fff78793          	addi	a5,a5,-1
   10500:	fef42623          	sw	a5,-20(s0)
   10504:	fcc42783          	lw	a5,-52(s0)
   10508:	06079063          	bnez	a5,10568 <print_dec+0x9c>
   1050c:	fec42783          	lw	a5,-20(s0)
   10510:	03000713          	li	a4,48
   10514:	00e78023          	sb	a4,0(a5)
   10518:	fec42783          	lw	a5,-20(s0)
   1051c:	fff78793          	addi	a5,a5,-1
   10520:	fef42623          	sw	a5,-20(s0)
   10524:	04c0006f          	j	10570 <print_dec+0xa4>
   10528:	00a00593          	li	a1,10
   1052c:	fcc42503          	lw	a0,-52(s0)
   10530:	c49ff0ef          	jal	10178 <umod>
   10534:	00050793          	mv	a5,a0
   10538:	0ff7f793          	zext.b	a5,a5
   1053c:	03078793          	addi	a5,a5,48
   10540:	0ff7f713          	zext.b	a4,a5
   10544:	fec42783          	lw	a5,-20(s0)
   10548:	00e78023          	sb	a4,0(a5)
   1054c:	fec42783          	lw	a5,-20(s0)
   10550:	fff78793          	addi	a5,a5,-1
   10554:	fef42623          	sw	a5,-20(s0)
   10558:	00a00593          	li	a1,10
   1055c:	fcc42503          	lw	a0,-52(s0)
   10560:	b55ff0ef          	jal	100b4 <udiv>
   10564:	fca42623          	sw	a0,-52(s0)
   10568:	fcc42783          	lw	a5,-52(s0)
   1056c:	fa079ee3          	bnez	a5,10528 <print_dec+0x5c>
   10570:	fec42783          	lw	a5,-20(s0)
   10574:	00178793          	addi	a5,a5,1
   10578:	fef42623          	sw	a5,-20(s0)
   1057c:	fd840793          	addi	a5,s0,-40
   10580:	01478793          	addi	a5,a5,20
   10584:	fec42703          	lw	a4,-20(s0)
   10588:	40e78733          	sub	a4,a5,a4
   1058c:	fec42783          	lw	a5,-20(s0)
   10590:	04000893          	li	a7,64
   10594:	00100513          	li	a0,1
   10598:	00f005b3          	add	a1,zero,a5
   1059c:	00070613          	mv	a2,a4
   105a0:	00000073          	ecall
   105a4:	00000013          	nop
   105a8:	03c12083          	lw	ra,60(sp)
   105ac:	03812403          	lw	s0,56(sp)
   105b0:	04010113          	addi	sp,sp,64
   105b4:	00008067          	ret

000105b8 <print_uint_no_nl>:
   105b8:	fa010113          	addi	sp,sp,-96
   105bc:	04112e23          	sw	ra,92(sp)
   105c0:	04812c23          	sw	s0,88(sp)
   105c4:	06010413          	addi	s0,sp,96
   105c8:	faa42623          	sw	a0,-84(s0)
   105cc:	fe042623          	sw	zero,-20(s0)
   105d0:	fac42783          	lw	a5,-84(s0)
   105d4:	02079263          	bnez	a5,105f8 <print_uint_no_nl+0x40>
   105d8:	fec42783          	lw	a5,-20(s0)
   105dc:	00178713          	addi	a4,a5,1
   105e0:	fee42623          	sw	a4,-20(s0)
   105e4:	ff078793          	addi	a5,a5,-16
   105e8:	008787b3          	add	a5,a5,s0
   105ec:	03000713          	li	a4,48
   105f0:	fce78e23          	sb	a4,-36(a5)
   105f4:	0a40006f          	j	10698 <print_uint_no_nl+0xe0>
   105f8:	fe042423          	sw	zero,-24(s0)
   105fc:	0480006f          	j	10644 <print_uint_no_nl+0x8c>
   10600:	00a00593          	li	a1,10
   10604:	fac42503          	lw	a0,-84(s0)
   10608:	b71ff0ef          	jal	10178 <umod>
   1060c:	00050793          	mv	a5,a0
   10610:	0ff7f713          	zext.b	a4,a5
   10614:	fe842783          	lw	a5,-24(s0)
   10618:	00178693          	addi	a3,a5,1
   1061c:	fed42423          	sw	a3,-24(s0)
   10620:	03070713          	addi	a4,a4,48
   10624:	0ff77713          	zext.b	a4,a4
   10628:	ff078793          	addi	a5,a5,-16
   1062c:	008787b3          	add	a5,a5,s0
   10630:	fce78223          	sb	a4,-60(a5)
   10634:	00a00593          	li	a1,10
   10638:	fac42503          	lw	a0,-84(s0)
   1063c:	a79ff0ef          	jal	100b4 <udiv>
   10640:	faa42623          	sw	a0,-84(s0)
   10644:	fac42783          	lw	a5,-84(s0)
   10648:	fa079ce3          	bnez	a5,10600 <print_uint_no_nl+0x48>
   1064c:	fe842783          	lw	a5,-24(s0)
   10650:	fff78793          	addi	a5,a5,-1
   10654:	fef42223          	sw	a5,-28(s0)
   10658:	0380006f          	j	10690 <print_uint_no_nl+0xd8>
   1065c:	fec42783          	lw	a5,-20(s0)
   10660:	00178713          	addi	a4,a5,1
   10664:	fee42623          	sw	a4,-20(s0)
   10668:	fe442703          	lw	a4,-28(s0)
   1066c:	ff070713          	addi	a4,a4,-16
   10670:	00870733          	add	a4,a4,s0
   10674:	fc474703          	lbu	a4,-60(a4)
   10678:	ff078793          	addi	a5,a5,-16
   1067c:	008787b3          	add	a5,a5,s0
   10680:	fce78e23          	sb	a4,-36(a5)
   10684:	fe442783          	lw	a5,-28(s0)
   10688:	fff78793          	addi	a5,a5,-1
   1068c:	fef42223          	sw	a5,-28(s0)
   10690:	fe442783          	lw	a5,-28(s0)
   10694:	fc07d4e3          	bgez	a5,1065c <print_uint_no_nl+0xa4>
   10698:	fcc40793          	addi	a5,s0,-52
   1069c:	fec42703          	lw	a4,-20(s0)
   106a0:	04000893          	li	a7,64
   106a4:	00100513          	li	a0,1
   106a8:	00f005b3          	add	a1,zero,a5
   106ac:	00070613          	mv	a2,a4
   106b0:	00000073          	ecall
   106b4:	00000013          	nop
   106b8:	05c12083          	lw	ra,92(sp)
   106bc:	05812403          	lw	s0,88(sp)
   106c0:	06010113          	addi	sp,sp,96
   106c4:	00008067          	ret

000106c8 <print_q16>:
   106c8:	f8010113          	addi	sp,sp,-128
   106cc:	06112e23          	sw	ra,124(sp)
   106d0:	06812c23          	sw	s0,120(sp)
   106d4:	08010413          	addi	s0,sp,128
   106d8:	f8a42623          	sw	a0,-116(s0)
   106dc:	f8b42423          	sw	a1,-120(s0)
   106e0:	f8c42783          	lw	a5,-116(s0)
   106e4:	0107d793          	srli	a5,a5,0x10
   106e8:	fef42623          	sw	a5,-20(s0)
   106ec:	00100713          	li	a4,1
   106f0:	00000793          	li	a5,0
   106f4:	fee42023          	sw	a4,-32(s0)
   106f8:	fef42223          	sw	a5,-28(s0)
   106fc:	fc042e23          	sw	zero,-36(s0)
   10700:	0780006f          	j	10778 <print_q16+0xb0>
   10704:	fe042303          	lw	t1,-32(s0)
   10708:	fe442383          	lw	t2,-28(s0)
   1070c:	00030713          	mv	a4,t1
   10710:	00038793          	mv	a5,t2
   10714:	01e75593          	srli	a1,a4,0x1e
   10718:	00279693          	slli	a3,a5,0x2
   1071c:	00d5e6b3          	or	a3,a1,a3
   10720:	00271613          	slli	a2,a4,0x2
   10724:	00060713          	mv	a4,a2
   10728:	00068793          	mv	a5,a3
   1072c:	00670533          	add	a0,a4,t1
   10730:	00050e13          	mv	t3,a0
   10734:	00ee3e33          	sltu	t3,t3,a4
   10738:	007785b3          	add	a1,a5,t2
   1073c:	00be07b3          	add	a5,t3,a1
   10740:	00078593          	mv	a1,a5
   10744:	00050713          	mv	a4,a0
   10748:	00058793          	mv	a5,a1
   1074c:	01f75593          	srli	a1,a4,0x1f
   10750:	00179893          	slli	a7,a5,0x1
   10754:	0115e8b3          	or	a7,a1,a7
   10758:	00171813          	slli	a6,a4,0x1
   1075c:	00080713          	mv	a4,a6
   10760:	00088793          	mv	a5,a7
   10764:	fee42023          	sw	a4,-32(s0)
   10768:	fef42223          	sw	a5,-28(s0)
   1076c:	fdc42783          	lw	a5,-36(s0)
   10770:	00178793          	addi	a5,a5,1
   10774:	fcf42e23          	sw	a5,-36(s0)
   10778:	fdc42703          	lw	a4,-36(s0)
   1077c:	f8842783          	lw	a5,-120(s0)
   10780:	f8f762e3          	bltu	a4,a5,10704 <print_q16+0x3c>
   10784:	f8c42783          	lw	a5,-116(s0)
   10788:	01079793          	slli	a5,a5,0x10
   1078c:	0107d793          	srli	a5,a5,0x10
   10790:	fe042703          	lw	a4,-32(s0)
   10794:	00070593          	mv	a1,a4
   10798:	00078513          	mv	a0,a5
   1079c:	b35ff0ef          	jal	102d0 <mul32>
   107a0:	00050613          	mv	a2,a0
   107a4:	00058693          	mv	a3,a1
   107a8:	00008537          	lui	a0,0x8
   107ac:	00000593          	li	a1,0
   107b0:	00a60733          	add	a4,a2,a0
   107b4:	00070813          	mv	a6,a4
   107b8:	00c83833          	sltu	a6,a6,a2
   107bc:	00b687b3          	add	a5,a3,a1
   107c0:	00f806b3          	add	a3,a6,a5
   107c4:	00068793          	mv	a5,a3
   107c8:	01079693          	slli	a3,a5,0x10
   107cc:	01075613          	srli	a2,a4,0x10
   107d0:	00d666b3          	or	a3,a2,a3
   107d4:	fcd42823          	sw	a3,-48(s0)
   107d8:	0107d793          	srli	a5,a5,0x10
   107dc:	fcf42a23          	sw	a5,-44(s0)
   107e0:	fe442703          	lw	a4,-28(s0)
   107e4:	fd442783          	lw	a5,-44(s0)
   107e8:	02e7ec63          	bltu	a5,a4,10820 <print_q16+0x158>
   107ec:	fe442703          	lw	a4,-28(s0)
   107f0:	fd442783          	lw	a5,-44(s0)
   107f4:	00f71863          	bne	a4,a5,10804 <print_q16+0x13c>
   107f8:	fe042703          	lw	a4,-32(s0)
   107fc:	fd042783          	lw	a5,-48(s0)
   10800:	02e7e063          	bltu	a5,a4,10820 <print_q16+0x158>
   10804:	fec42783          	lw	a5,-20(s0)
   10808:	00178793          	addi	a5,a5,1
   1080c:	fef42623          	sw	a5,-20(s0)
   10810:	00000793          	li	a5,0
   10814:	00000813          	li	a6,0
   10818:	fcf42823          	sw	a5,-48(s0)
   1081c:	fd042a23          	sw	a6,-44(s0)
   10820:	fec42503          	lw	a0,-20(s0)
   10824:	d95ff0ef          	jal	105b8 <print_uint_no_nl>
   10828:	02e00793          	li	a5,46
   1082c:	faf40fa3          	sb	a5,-65(s0)
   10830:	fbf40793          	addi	a5,s0,-65
   10834:	00100713          	li	a4,1
   10838:	04000893          	li	a7,64
   1083c:	00100513          	li	a0,1
   10840:	00f005b3          	add	a1,zero,a5
   10844:	00070613          	mv	a2,a4
   10848:	00000073          	ecall
   1084c:	fc042623          	sw	zero,-52(s0)
   10850:	fe042783          	lw	a5,-32(s0)
   10854:	fe442703          	lw	a4,-28(s0)
   10858:	00e7e7b3          	or	a5,a5,a4
   1085c:	04079263          	bnez	a5,108a0 <print_q16+0x1d8>
   10860:	fc042423          	sw	zero,-56(s0)
   10864:	02c0006f          	j	10890 <print_q16+0x1c8>
   10868:	fcc42783          	lw	a5,-52(s0)
   1086c:	00178713          	addi	a4,a5,1
   10870:	fce42623          	sw	a4,-52(s0)
   10874:	ff078793          	addi	a5,a5,-16
   10878:	008787b3          	add	a5,a5,s0
   1087c:	03000713          	li	a4,48
   10880:	fae78623          	sb	a4,-84(a5)
   10884:	fc842783          	lw	a5,-56(s0)
   10888:	00178793          	addi	a5,a5,1
   1088c:	fcf42423          	sw	a5,-56(s0)
   10890:	fc842703          	lw	a4,-56(s0)
   10894:	f8842783          	lw	a5,-120(s0)
   10898:	fcf768e3          	bltu	a4,a5,10868 <print_q16+0x1a0>
   1089c:	0740006f          	j	10910 <print_q16+0x248>
   108a0:	fd042783          	lw	a5,-48(s0)
   108a4:	fcf42223          	sw	a5,-60(s0)
   108a8:	f8842783          	lw	a5,-120(s0)
   108ac:	fff78793          	addi	a5,a5,-1
   108b0:	fcf42023          	sw	a5,-64(s0)
   108b4:	04c0006f          	j	10900 <print_q16+0x238>
   108b8:	00a00593          	li	a1,10
   108bc:	fc442503          	lw	a0,-60(s0)
   108c0:	8b9ff0ef          	jal	10178 <umod>
   108c4:	00050793          	mv	a5,a0
   108c8:	0ff7f793          	zext.b	a5,a5
   108cc:	03078793          	addi	a5,a5,48
   108d0:	0ff7f713          	zext.b	a4,a5
   108d4:	fc042783          	lw	a5,-64(s0)
   108d8:	ff078793          	addi	a5,a5,-16
   108dc:	008787b3          	add	a5,a5,s0
   108e0:	fae78623          	sb	a4,-84(a5)
   108e4:	00a00593          	li	a1,10
   108e8:	fc442503          	lw	a0,-60(s0)
   108ec:	fc8ff0ef          	jal	100b4 <udiv>
   108f0:	fca42223          	sw	a0,-60(s0)
   108f4:	fc042783          	lw	a5,-64(s0)
   108f8:	fff78793          	addi	a5,a5,-1
   108fc:	fcf42023          	sw	a5,-64(s0)
   10900:	fc042783          	lw	a5,-64(s0)
   10904:	fa07dae3          	bgez	a5,108b8 <print_q16+0x1f0>
   10908:	f8842783          	lw	a5,-120(s0)
   1090c:	fcf42623          	sw	a5,-52(s0)
   10910:	f9c40793          	addi	a5,s0,-100
   10914:	fcc42703          	lw	a4,-52(s0)
   10918:	04000893          	li	a7,64
   1091c:	00100513          	li	a0,1
   10920:	00f005b3          	add	a1,zero,a5
   10924:	00070613          	mv	a2,a4
   10928:	00000073          	ecall
   1092c:	00000013          	nop
   10930:	07c12083          	lw	ra,124(sp)
   10934:	07812403          	lw	s0,120(sp)
   10938:	08010113          	addi	sp,sp,128
   1093c:	00008067          	ret

00010940 <clz>:
   10940:	fd010113          	addi	sp,sp,-48
   10944:	02112623          	sw	ra,44(sp)
   10948:	02812423          	sw	s0,40(sp)
   1094c:	03010413          	addi	s0,sp,48
   10950:	fca42e23          	sw	a0,-36(s0)
   10954:	fdc42783          	lw	a5,-36(s0)
   10958:	00079663          	bnez	a5,10964 <clz+0x24>
   1095c:	02000793          	li	a5,32
   10960:	0b00006f          	j	10a10 <clz+0xd0>
   10964:	fe042623          	sw	zero,-20(s0)
   10968:	fdc42703          	lw	a4,-36(s0)
   1096c:	000107b7          	lui	a5,0x10
   10970:	00f77e63          	bgeu	a4,a5,1098c <clz+0x4c>
   10974:	fec42783          	lw	a5,-20(s0)
   10978:	01078793          	addi	a5,a5,16 # 10010 <_start+0x10>
   1097c:	fef42623          	sw	a5,-20(s0)
   10980:	fdc42783          	lw	a5,-36(s0)
   10984:	01079793          	slli	a5,a5,0x10
   10988:	fcf42e23          	sw	a5,-36(s0)
   1098c:	fdc42703          	lw	a4,-36(s0)
   10990:	010007b7          	lui	a5,0x1000
   10994:	00f77e63          	bgeu	a4,a5,109b0 <clz+0x70>
   10998:	fec42783          	lw	a5,-20(s0)
   1099c:	00878793          	addi	a5,a5,8 # 1000008 <__stack_top+0xfee058>
   109a0:	fef42623          	sw	a5,-20(s0)
   109a4:	fdc42783          	lw	a5,-36(s0)
   109a8:	00879793          	slli	a5,a5,0x8
   109ac:	fcf42e23          	sw	a5,-36(s0)
   109b0:	fdc42703          	lw	a4,-36(s0)
   109b4:	100007b7          	lui	a5,0x10000
   109b8:	00f77e63          	bgeu	a4,a5,109d4 <clz+0x94>
   109bc:	fec42783          	lw	a5,-20(s0)
   109c0:	00478793          	addi	a5,a5,4 # 10000004 <__stack_top+0xffee054>
   109c4:	fef42623          	sw	a5,-20(s0)
   109c8:	fdc42783          	lw	a5,-36(s0)
   109cc:	00479793          	slli	a5,a5,0x4
   109d0:	fcf42e23          	sw	a5,-36(s0)
   109d4:	fdc42703          	lw	a4,-36(s0)
   109d8:	400007b7          	lui	a5,0x40000
   109dc:	00f77e63          	bgeu	a4,a5,109f8 <clz+0xb8>
   109e0:	fec42783          	lw	a5,-20(s0)
   109e4:	00278793          	addi	a5,a5,2 # 40000002 <__stack_top+0x3ffee052>
   109e8:	fef42623          	sw	a5,-20(s0)
   109ec:	fdc42783          	lw	a5,-36(s0)
   109f0:	00279793          	slli	a5,a5,0x2
   109f4:	fcf42e23          	sw	a5,-36(s0)
   109f8:	fdc42783          	lw	a5,-36(s0)
   109fc:	0007c863          	bltz	a5,10a0c <clz+0xcc>
   10a00:	fec42783          	lw	a5,-20(s0)
   10a04:	00178793          	addi	a5,a5,1
   10a08:	fef42623          	sw	a5,-20(s0)
   10a0c:	fec42783          	lw	a5,-20(s0)
   10a10:	00078513          	mv	a0,a5
   10a14:	02c12083          	lw	ra,44(sp)
   10a18:	02812403          	lw	s0,40(sp)
   10a1c:	03010113          	addi	sp,sp,48
   10a20:	00008067          	ret

00010a24 <fast_rsqrt>:
   10a24:	f9010113          	addi	sp,sp,-112
   10a28:	06112623          	sw	ra,108(sp)
   10a2c:	06812423          	sw	s0,104(sp)
   10a30:	07212223          	sw	s2,100(sp)
   10a34:	07312023          	sw	s3,96(sp)
   10a38:	05412e23          	sw	s4,92(sp)
   10a3c:	05512c23          	sw	s5,88(sp)
   10a40:	05612a23          	sw	s6,84(sp)
   10a44:	05712823          	sw	s7,80(sp)
   10a48:	05812623          	sw	s8,76(sp)
   10a4c:	05912423          	sw	s9,72(sp)
   10a50:	05a12223          	sw	s10,68(sp)
   10a54:	05b12023          	sw	s11,64(sp)
   10a58:	07010413          	addi	s0,sp,112
   10a5c:	faa42623          	sw	a0,-84(s0)
   10a60:	fac42783          	lw	a5,-84(s0)
   10a64:	00079663          	bnez	a5,10a70 <fast_rsqrt+0x4c>
   10a68:	fff00793          	li	a5,-1
   10a6c:	2380006f          	j	10ca4 <fast_rsqrt+0x280>
   10a70:	fac42703          	lw	a4,-84(s0)
   10a74:	00100793          	li	a5,1
   10a78:	00f71663          	bne	a4,a5,10a84 <fast_rsqrt+0x60>
   10a7c:	000107b7          	lui	a5,0x10
   10a80:	2240006f          	j	10ca4 <fast_rsqrt+0x280>
   10a84:	fac42503          	lw	a0,-84(s0)
   10a88:	eb9ff0ef          	jal	10940 <clz>
   10a8c:	00050713          	mv	a4,a0
   10a90:	01f00793          	li	a5,31
   10a94:	40e787b3          	sub	a5,a5,a4
   10a98:	fcf42223          	sw	a5,-60(s0)
   10a9c:	000117b7          	lui	a5,0x11
   10aa0:	f2078713          	addi	a4,a5,-224 # 10f20 <rsqrt_table>
   10aa4:	fc442783          	lw	a5,-60(s0)
   10aa8:	00179793          	slli	a5,a5,0x1
   10aac:	00f707b3          	add	a5,a4,a5
   10ab0:	0007d783          	lhu	a5,0(a5)
   10ab4:	fcf42623          	sw	a5,-52(s0)
   10ab8:	fc442783          	lw	a5,-60(s0)
   10abc:	00100713          	li	a4,1
   10ac0:	00f717b3          	sll	a5,a4,a5
   10ac4:	fac42703          	lw	a4,-84(s0)
   10ac8:	14e7f263          	bgeu	a5,a4,10c0c <fast_rsqrt+0x1e8>
   10acc:	fc442703          	lw	a4,-60(s0)
   10ad0:	01e00793          	li	a5,30
   10ad4:	02e7c263          	blt	a5,a4,10af8 <fast_rsqrt+0xd4>
   10ad8:	fc442783          	lw	a5,-60(s0)
   10adc:	00178793          	addi	a5,a5,1
   10ae0:	00011737          	lui	a4,0x11
   10ae4:	f2070713          	addi	a4,a4,-224 # 10f20 <rsqrt_table>
   10ae8:	00179793          	slli	a5,a5,0x1
   10aec:	00f707b3          	add	a5,a4,a5
   10af0:	0007d783          	lhu	a5,0(a5)
   10af4:	0080006f          	j	10afc <fast_rsqrt+0xd8>
   10af8:	00000793          	li	a5,0
   10afc:	fcf42023          	sw	a5,-64(s0)
   10b00:	fcc42703          	lw	a4,-52(s0)
   10b04:	fc042783          	lw	a5,-64(s0)
   10b08:	40f707b3          	sub	a5,a4,a5
   10b0c:	faf42e23          	sw	a5,-68(s0)
   10b10:	fac42783          	lw	a5,-84(s0)
   10b14:	f8f42c23          	sw	a5,-104(s0)
   10b18:	f8042e23          	sw	zero,-100(s0)
   10b1c:	fc442783          	lw	a5,-60(s0)
   10b20:	fe078793          	addi	a5,a5,-32
   10b24:	0007ca63          	bltz	a5,10b38 <fast_rsqrt+0x114>
   10b28:	00100713          	li	a4,1
   10b2c:	00f71db3          	sll	s11,a4,a5
   10b30:	00000d13          	li	s10,0
   10b34:	0140006f          	j	10b48 <fast_rsqrt+0x124>
   10b38:	00000d93          	li	s11,0
   10b3c:	fc442783          	lw	a5,-60(s0)
   10b40:	00100713          	li	a4,1
   10b44:	00f71d33          	sll	s10,a4,a5
   10b48:	f9842503          	lw	a0,-104(s0)
   10b4c:	f9c42583          	lw	a1,-100(s0)
   10b50:	00050693          	mv	a3,a0
   10b54:	41a68733          	sub	a4,a3,s10
   10b58:	00070693          	mv	a3,a4
   10b5c:	00050613          	mv	a2,a0
   10b60:	00d636b3          	sltu	a3,a2,a3
   10b64:	00058613          	mv	a2,a1
   10b68:	41b607b3          	sub	a5,a2,s11
   10b6c:	40d786b3          	sub	a3,a5,a3
   10b70:	00068793          	mv	a5,a3
   10b74:	01075693          	srli	a3,a4,0x10
   10b78:	01079993          	slli	s3,a5,0x10
   10b7c:	0136e9b3          	or	s3,a3,s3
   10b80:	01071913          	slli	s2,a4,0x10
   10b84:	fc442783          	lw	a5,-60(s0)
   10b88:	fe078793          	addi	a5,a5,-32
   10b8c:	0007c863          	bltz	a5,10b9c <fast_rsqrt+0x178>
   10b90:	00f9da33          	srl	s4,s3,a5
   10b94:	00000a93          	li	s5,0
   10b98:	02c0006f          	j	10bc4 <fast_rsqrt+0x1a0>
   10b9c:	00199713          	slli	a4,s3,0x1
   10ba0:	01f00693          	li	a3,31
   10ba4:	fc442783          	lw	a5,-60(s0)
   10ba8:	40f687b3          	sub	a5,a3,a5
   10bac:	00f717b3          	sll	a5,a4,a5
   10bb0:	fc442703          	lw	a4,-60(s0)
   10bb4:	00e95a33          	srl	s4,s2,a4
   10bb8:	0147ea33          	or	s4,a5,s4
   10bbc:	fc442783          	lw	a5,-60(s0)
   10bc0:	00f9dab3          	srl	s5,s3,a5
   10bc4:	fb442c23          	sw	s4,-72(s0)
   10bc8:	fb842583          	lw	a1,-72(s0)
   10bcc:	fbc42503          	lw	a0,-68(s0)
   10bd0:	f00ff0ef          	jal	102d0 <mul32>
   10bd4:	00050713          	mv	a4,a0
   10bd8:	00058793          	mv	a5,a1
   10bdc:	01079693          	slli	a3,a5,0x10
   10be0:	01075613          	srli	a2,a4,0x10
   10be4:	fac42023          	sw	a2,-96(s0)
   10be8:	fa042603          	lw	a2,-96(s0)
   10bec:	00c6e6b3          	or	a3,a3,a2
   10bf0:	fad42023          	sw	a3,-96(s0)
   10bf4:	0107d793          	srli	a5,a5,0x10
   10bf8:	faf42223          	sw	a5,-92(s0)
   10bfc:	fa042703          	lw	a4,-96(s0)
   10c00:	fcc42783          	lw	a5,-52(s0)
   10c04:	40e787b3          	sub	a5,a5,a4
   10c08:	fcf42623          	sw	a5,-52(s0)
   10c0c:	fc042423          	sw	zero,-56(s0)
   10c10:	0840006f          	j	10c94 <fast_rsqrt+0x270>
   10c14:	fcc42583          	lw	a1,-52(s0)
   10c18:	fcc42503          	lw	a0,-52(s0)
   10c1c:	eb4ff0ef          	jal	102d0 <mul32>
   10c20:	00050713          	mv	a4,a0
   10c24:	00058793          	mv	a5,a1
   10c28:	fae42a23          	sw	a4,-76(s0)
   10c2c:	fb442583          	lw	a1,-76(s0)
   10c30:	fac42503          	lw	a0,-84(s0)
   10c34:	e9cff0ef          	jal	102d0 <mul32>
   10c38:	00050713          	mv	a4,a0
   10c3c:	00058793          	mv	a5,a1
   10c40:	01079693          	slli	a3,a5,0x10
   10c44:	01075b13          	srli	s6,a4,0x10
   10c48:	0166eb33          	or	s6,a3,s6
   10c4c:	0107db93          	srli	s7,a5,0x10
   10c50:	fb642823          	sw	s6,-80(s0)
   10c54:	00030737          	lui	a4,0x30
   10c58:	fb042783          	lw	a5,-80(s0)
   10c5c:	40f707b3          	sub	a5,a4,a5
   10c60:	00078593          	mv	a1,a5
   10c64:	fcc42503          	lw	a0,-52(s0)
   10c68:	e68ff0ef          	jal	102d0 <mul32>
   10c6c:	00050713          	mv	a4,a0
   10c70:	00058793          	mv	a5,a1
   10c74:	00f79693          	slli	a3,a5,0xf
   10c78:	01175c13          	srli	s8,a4,0x11
   10c7c:	0186ec33          	or	s8,a3,s8
   10c80:	0117dc93          	srli	s9,a5,0x11
   10c84:	fd842623          	sw	s8,-52(s0)
   10c88:	fc842783          	lw	a5,-56(s0)
   10c8c:	00178793          	addi	a5,a5,1
   10c90:	fcf42423          	sw	a5,-56(s0)
   10c94:	fc842703          	lw	a4,-56(s0)
   10c98:	00100793          	li	a5,1
   10c9c:	f6e7dce3          	bge	a5,a4,10c14 <fast_rsqrt+0x1f0>
   10ca0:	fcc42783          	lw	a5,-52(s0)
   10ca4:	00078513          	mv	a0,a5
   10ca8:	06c12083          	lw	ra,108(sp)
   10cac:	06812403          	lw	s0,104(sp)
   10cb0:	06412903          	lw	s2,100(sp)
   10cb4:	06012983          	lw	s3,96(sp)
   10cb8:	05c12a03          	lw	s4,92(sp)
   10cbc:	05812a83          	lw	s5,88(sp)
   10cc0:	05412b03          	lw	s6,84(sp)
   10cc4:	05012b83          	lw	s7,80(sp)
   10cc8:	04c12c03          	lw	s8,76(sp)
   10ccc:	04812c83          	lw	s9,72(sp)
   10cd0:	04412d03          	lw	s10,68(sp)
   10cd4:	04012d83          	lw	s11,64(sp)
   10cd8:	07010113          	addi	sp,sp,112
   10cdc:	00008067          	ret

00010ce0 <main>:
   10ce0:	f8010113          	addi	sp,sp,-128
   10ce4:	06112e23          	sw	ra,124(sp)
   10ce8:	06812c23          	sw	s0,120(sp)
   10cec:	08010413          	addi	s0,sp,128
   10cf0:	000117b7          	lui	a5,0x11
   10cf4:	f6078793          	addi	a5,a5,-160 # 10f60 <rsqrt_table+0x40>
   10cf8:	0007a803          	lw	a6,0(a5)
   10cfc:	0047a503          	lw	a0,4(a5)
   10d00:	0087a583          	lw	a1,8(a5)
   10d04:	00c7a603          	lw	a2,12(a5)
   10d08:	0107a683          	lw	a3,16(a5)
   10d0c:	0147a703          	lw	a4,20(a5)
   10d10:	0187a783          	lw	a5,24(a5)
   10d14:	fd042423          	sw	a6,-56(s0)
   10d18:	fca42623          	sw	a0,-52(s0)
   10d1c:	fcb42823          	sw	a1,-48(s0)
   10d20:	fcc42a23          	sw	a2,-44(s0)
   10d24:	fcd42c23          	sw	a3,-40(s0)
   10d28:	fce42e23          	sw	a4,-36(s0)
   10d2c:	fef42023          	sw	a5,-32(s0)
   10d30:	fe042623          	sw	zero,-20(s0)
   10d34:	1a00006f          	j	10ed4 <main+0x1f4>
   10d38:	fec42703          	lw	a4,-20(s0)
   10d3c:	fc840793          	addi	a5,s0,-56
   10d40:	00271713          	slli	a4,a4,0x2
   10d44:	00f707b3          	add	a5,a4,a5
   10d48:	0007a783          	lw	a5,0(a5)
   10d4c:	fef42423          	sw	a5,-24(s0)
   10d50:	203d27b7          	lui	a5,0x203d2
   10d54:	07878793          	addi	a5,a5,120 # 203d2078 <__stack_top+0x203c00c8>
   10d58:	fcf42023          	sw	a5,-64(s0)
   10d5c:	fc040223          	sb	zero,-60(s0)
   10d60:	fc040793          	addi	a5,s0,-64
   10d64:	00400713          	li	a4,4
   10d68:	04000893          	li	a7,64
   10d6c:	00100513          	li	a0,1
   10d70:	00f005b3          	add	a1,zero,a5
   10d74:	00070613          	mv	a2,a4
   10d78:	00000073          	ecall
   10d7c:	fe842503          	lw	a0,-24(s0)
   10d80:	f4cff0ef          	jal	104cc <print_dec>
   10d84:	fe842503          	lw	a0,-24(s0)
   10d88:	c9dff0ef          	jal	10a24 <fast_rsqrt>
   10d8c:	fea42223          	sw	a0,-28(s0)
   10d90:	207927b7          	lui	a5,0x20792
   10d94:	02078793          	addi	a5,a5,32 # 20792020 <__stack_top+0x20780070>
   10d98:	faf42c23          	sw	a5,-72(s0)
   10d9c:	000027b7          	lui	a5,0x2
   10da0:	03d78793          	addi	a5,a5,61 # 203d <_start-0xdfc3>
   10da4:	faf41e23          	sh	a5,-68(s0)
   10da8:	fa040f23          	sb	zero,-66(s0)
   10dac:	fb840793          	addi	a5,s0,-72
   10db0:	00600713          	li	a4,6
   10db4:	04000893          	li	a7,64
   10db8:	00100513          	li	a0,1
   10dbc:	00f005b3          	add	a1,zero,a5
   10dc0:	00070613          	mv	a2,a4
   10dc4:	00000073          	ecall
   10dc8:	fe442503          	lw	a0,-28(s0)
   10dcc:	f00ff0ef          	jal	104cc <print_dec>
   10dd0:	fe442703          	lw	a4,-28(s0)
   10dd4:	fff00793          	li	a5,-1
   10dd8:	06f71663          	bne	a4,a5,10e44 <main+0x164>
   10ddc:	000117b7          	lui	a5,0x11
   10de0:	f7c78793          	addi	a5,a5,-132 # 10f7c <rsqrt_table+0x5c>
   10de4:	0007a883          	lw	a7,0(a5)
   10de8:	0047a803          	lw	a6,4(a5)
   10dec:	0087a503          	lw	a0,8(a5)
   10df0:	00c7a583          	lw	a1,12(a5)
   10df4:	0107a603          	lw	a2,16(a5)
   10df8:	0147a683          	lw	a3,20(a5)
   10dfc:	0187a703          	lw	a4,24(a5)
   10e00:	f9142c23          	sw	a7,-104(s0)
   10e04:	f9042e23          	sw	a6,-100(s0)
   10e08:	faa42023          	sw	a0,-96(s0)
   10e0c:	fab42223          	sw	a1,-92(s0)
   10e10:	fac42423          	sw	a2,-88(s0)
   10e14:	fad42623          	sw	a3,-84(s0)
   10e18:	fae42823          	sw	a4,-80(s0)
   10e1c:	01c7c783          	lbu	a5,28(a5)
   10e20:	faf40a23          	sb	a5,-76(s0)
   10e24:	f9840793          	addi	a5,s0,-104
   10e28:	01c00713          	li	a4,28
   10e2c:	04000893          	li	a7,64
   10e30:	00100513          	li	a0,1
   10e34:	00f005b3          	add	a1,zero,a5
   10e38:	00070613          	mv	a2,a4
   10e3c:	00000073          	ecall
   10e40:	0880006f          	j	10ec8 <main+0x1e8>
   10e44:	000117b7          	lui	a5,0x11
   10e48:	f9c78793          	addi	a5,a5,-100 # 10f9c <rsqrt_table+0x7c>
   10e4c:	0007a603          	lw	a2,0(a5)
   10e50:	0047a683          	lw	a3,4(a5)
   10e54:	0087a703          	lw	a4,8(a5)
   10e58:	f8c42423          	sw	a2,-120(s0)
   10e5c:	f8d42623          	sw	a3,-116(s0)
   10e60:	f8e42823          	sw	a4,-112(s0)
   10e64:	00c7d703          	lhu	a4,12(a5)
   10e68:	f8e41a23          	sh	a4,-108(s0)
   10e6c:	00e7c783          	lbu	a5,14(a5)
   10e70:	f8f40b23          	sb	a5,-106(s0)
   10e74:	f8840793          	addi	a5,s0,-120
   10e78:	00e00713          	li	a4,14
   10e7c:	04000893          	li	a7,64
   10e80:	00100513          	li	a0,1
   10e84:	00f005b3          	add	a1,zero,a5
   10e88:	00070613          	mv	a2,a4
   10e8c:	00000073          	ecall
   10e90:	00600593          	li	a1,6
   10e94:	fe442503          	lw	a0,-28(s0)
   10e98:	831ff0ef          	jal	106c8 <print_q16>
   10e9c:	000017b7          	lui	a5,0x1
   10ea0:	a2978793          	addi	a5,a5,-1495 # a29 <_start-0xf5d7>
   10ea4:	f8f41223          	sh	a5,-124(s0)
   10ea8:	f8040323          	sb	zero,-122(s0)
   10eac:	f8440793          	addi	a5,s0,-124
   10eb0:	00200713          	li	a4,2
   10eb4:	04000893          	li	a7,64
   10eb8:	00100513          	li	a0,1
   10ebc:	00f005b3          	add	a1,zero,a5
   10ec0:	00070613          	mv	a2,a4
   10ec4:	00000073          	ecall
   10ec8:	fec42783          	lw	a5,-20(s0)
   10ecc:	00178793          	addi	a5,a5,1
   10ed0:	fef42623          	sw	a5,-20(s0)
   10ed4:	fec42703          	lw	a4,-20(s0)
   10ed8:	00600793          	li	a5,6
   10edc:	e4e7fee3          	bgeu	a5,a4,10d38 <main+0x58>
   10ee0:	00000793          	li	a5,0
   10ee4:	00078513          	mv	a0,a5
   10ee8:	07c12083          	lw	ra,124(sp)
   10eec:	07812403          	lw	s0,120(sp)
   10ef0:	08010113          	addi	sp,sp,128
   10ef4:	00008067          	ret

00010ef8 <get_cycles>:
   10ef8:	c80025f3          	rdcycleh	a1
   10efc:	c0002573          	rdcycle	a0
   10f00:	c8002673          	rdcycleh	a2
   10f04:	fec59ae3          	bne	a1,a2,10ef8 <get_cycles>
   10f08:	00008067          	ret

00010f0c <get_instret>:
   10f0c:	c82025f3          	rdinstreth	a1
   10f10:	c0202573          	rdinstret	a0
   10f14:	c8202673          	rdinstreth	a2
   10f18:	fec59ae3          	bne	a1,a2,10f0c <get_instret>
   10f1c:	00008067          	ret
